(dp0
S'limited'
p1
(F0.25
F0.875
F1.0
F0.25
F0.875
F1.0
tp2
sS'chinese'
p3
(F0.0
F0.0
F1.0
F0.0
F0.0
F1.0
tp4
sS'particular'
p5
(F0.25
F0.125
F1.0
F0.25
F0.125
F1.0
tp6
sS'activated'
p7
(F0.125
F0.125
F1.0
F0.125
F0.125
F1.0
tp8
sS'sleek'
p9
(F0.375
F0.125
F1.0
F0.375
F0.125
F0.875
tp10
sS'deluce'
p11
(I-1
I-1
I-1
I-1
I-1
I-1
tp12
sS'reluctant'
p13
(F0.125
F0.625
F0.625
F0.125
F0.625
F0.625
tp14
sS'successfull'
p15
(I-1
I-1
I-1
I-1
I-1
I-1
tp16
sS'unblocked'
p17
(F0.0
F0.0
F1.0
I0
I0
I0
tp18
sS'u201cfanboy'
p19
(I-1
I-1
I-1
I-1
I-1
I-1
tp20
sS'concerned'
p21
(F0.5
F0.375
F1.0
F0.5
F0.375
F1.0
tp22
sS'bixby'
p23
(I-1
I-1
I-1
I-1
I-1
I-1
tp24
sS'intensive'
p25
(F0.5
F0.25
F1.0
F0.5
F0.25
F1.0
tp26
sS'udc4d'
p27
g16
sS'stable'
p28
(F0.5
F0.375
F1.0
F0.5
F0.375
F1.0
tp29
sS'sorry'
p30
(F0.5
F1.0
F0.5
F0.5
F1.0
F0.5
tp31
sS'worth'
p32
(F0.75
F0.0
F1.0
F0.25
F0.0
F1.0
tp33
sS'protective'
p34
(F0.375
F0.375
F0.875
F0.375
F0.375
F0.875
tp35
sS'premium'
p36
(F0.75
F0.375
F1.0
F0.75
F0.0
F0.25
tp37
sS'worse'
p38
(F0.625
F1.0
F0.625
F0.625
F1.0
F0.625
tp39
sS'prepaid'
p40
(F0.0
F0.0
F1.0
F0.0
F0.0
F1.0
tp41
sS'dynamic'
p42
(F0.5
F0.25
F1.0
F0.375
F0.25
F1.0
tp43
sS'netliy'
p44
(I-1
I-1
I-1
I-1
I-1
I-1
tp45
sS'nonused'
p46
(I-1
I-1
I-1
I-1
I-1
I-1
tp47
sS'worst'
p48
(F0.25
F1.0
F0.625
F0.25
F1.0
F0.625
tp49
sS'awful'
p50
(F0.875
F0.875
F0.75
F0.875
F0.875
F0.75
tp51
sS'exact'
p52
(F0.125
F0.0
F1.0
F0.125
F0.0
F1.0
tp53
sS'cool'
p54
(F0.5
F0.5
F1.0
F0.5
F0.5
F1.0
tp55
sS'timely'
p56
(F0.0
F0.0
F1.0
F0.0
F0.0
F1.0
tp57
sS'entire'
p58
(F0.5
F0.0
F1.0
F0.5
F0.0
F1.0
tp59
sS'impressive'
p60
(F0.375
F0.0
F0.875
F0.375
F0.0
F0.875
tp61
sS'stiff'
p62
(F0.375
F0.75
F1.0
F0.375
F0.75
F1.0
tp63
sS'customizable'
p64
g24
sS'die'
p65
(F0.25
F0.375
F1.0
I0
I0
I0
tp66
sS'fragile'
p67
(F0.25
F0.625
F1.0
F0.25
F0.625
F1.0
tp68
sS'applicable'
p69
(F0.5
F0.0
F0.5
F0.5
F0.0
F0.5
tp70
sS'leave'
p71
(F0.0
F0.25
F1.0
I0
I0
I0
tp72
sS'dealt'
p73
(F0.0
F0.0
F1.0
I0
I0
I0
tp74
sS'quick'
p75
(F0.25
F0.25
F1.0
F0.25
F0.25
F1.0
tp76
sS'reliable'
p77
(F0.625
F0.0
F0.625
F0.625
F0.0
F0.625
tp78
sS'smaller'
p79
(F0.125
F0.875
F1.0
F0.125
F0.875
F1.0
tp80
sS'slower'
p81
(F0.0
F0.5
F1.0
F0.0
F0.5
F1.0
tp82
sS'consistent'
p83
(F0.25
F0.0
F1.0
F0.25
F0.0
F1.0
tp84
sS'direct'
p85
(F0.75
F0.25
F1.0
F0.75
F0.25
F1.0
tp86
sS'past'
p87
(F0.0
F0.25
F1.0
F0.0
F0.25
F1.0
tp88
sS'elegant'
p89
(F0.5
F0.125
F0.625
F0.5
F0.125
F0.625
tp90
sS'second'
p91
(F0.5
F0.25
F1.0
F0.0
F0.0
F1.0
tp92
sS'fabulous'
p93
(F0.875
F0.25
F0.75
F0.875
F0.25
F0.75
tp94
sS'implemented'
p95
(F0.0
F0.125
F1.0
F0.0
F0.0
F1.0
tp96
sS'specs'
p97
(F0.0
F0.0
F1.0
I0
I0
I0
tp98
sS'blue'
p99
(F0.375
F0.875
F1.0
F0.375
F0.875
F1.0
tp100
sS'pathetic'
p101
(F0.333
F0.875
F0.375
F0.333
F0.875
F0.375
tp102
sS'nano'
p103
g12
sS'incompatible'
p104
(F0.333
F0.875
F1.0
F0.333
F0.875
F1.0
tp105
sS'wrecked'
p106
(F0.0
F0.625
F0.75
F0.0
F0.625
F0.375
tp107
sS'current'
p108
(F0.0
F0.0
F1.0
F0.0
F0.0
F1.0
tp109
sS'anywhere'
p110
(F0.0
F0.0
F1.0
F0.0
F0.0
F1.0
tp111
sS'above'
p112
(F0.125
F0.125
F1.0
F0.125
F0.125
F1.0
tp113
sS'pristine'
p114
(F0.375
F0.5
F0.375
F0.375
F0.5
F0.375
tp115
sS'new'
p116
(F0.375
F0.625
F1.0
F0.375
F0.625
F1.0
tp117
sS'othere'
p118
g16
sS'centric'
p119
(F0.0
F0.0
F1.0
F0.0
F0.0
F1.0
tp120
sS'replaceable'
p121
(F0.625
F0.125
F0.25
F0.625
F0.125
F0.25
tp122
sS'french'
p123
(F0.0
F0.0
F1.0
F0.0
F0.0
F1.0
tp124
sS'shouldn'
p125
(I-1
I-1
I-1
I-1
I-1
I-1
tp126
sS'slow'
p127
(F0.0
F0.5
F1.0
F0.0
F0.5
F1.0
tp128
sS'active'
p129
(F0.5
F0.5
F1.0
F0.5
F0.5
F1.0
tp130
sS'safer'
p131
(F0.5
F0.375
F1.0
F0.5
F0.375
F1.0
tp132
sS'standard'
p133
(F0.375
F0.375
F1.0
F0.375
F0.375
F1.0
tp134
sS'irritating'
p135
(F0.375
F0.625
F1.0
F0.125
F0.625
F0.75
tp136
sS'breakable'
p137
(F0.25
F0.5
F0.625
F0.25
F0.5
F0.25
tp138
sS'great'
p139
(F0.875
F0.125
F1.0
F0.875
F0.125
F1.0
tp140
sS'ultra'
p141
(F0.125
F0.125
F0.75
F0.125
F0.125
F0.75
tp142
sS'metro'
p143
(F0.0
F0.0
F1.0
I0
I0
I0
tp144
sS'brilliant'
p145
(F0.875
F0.25
F1.0
F0.875
F0.25
F1.0
tp146
sS'ty'
p147
g47
sS'prior'
p148
(F0.0
F0.0
F1.0
F0.0
F0.0
F1.0
tp149
sS'arent'
p150
g47
sS'narrow'
p151
(F0.5
F0.25
F1.0
F0.5
F0.25
F0.875
tp152
sS'golden'
p153
(F0.875
F0.25
F1.0
F0.875
F0.25
F1.0
tp154
sS'fantastic'
p155
(F0.75
F0.625
F0.625
F0.75
F0.625
F0.625
tp156
sS'adjustable'
p157
(F0.625
F0.0
F0.875
F0.625
F0.0
F0.875
tp158
sS'useful'
p159
(F0.0
F0.0
F1.0
F0.0
F0.0
F1.0
tp160
sS'vid'
p161
g47
sS'extra'
p162
(F0.375
F0.5
F1.0
F0.375
F0.5
F1.0
tp163
sS'app'
p164
g12
sS'cosmetic'
p165
(F0.375
F0.0
F1.0
F0.375
F0.0
F1.0
tp166
sS'ive'
p167
g12
sS'fake'
p168
(F0.125
F0.875
F1.0
F0.125
F0.875
F0.25
tp169
sS'total'
p170
(F0.0
F0.0
F1.0
F0.0
F0.0
F1.0
tp171
sS'nonse'
p172
g47
sS'usb'
p173
g24
sS'positive'
p174
(F0.75
F0.875
F1.0
F0.75
F0.875
F1.0
tp175
sS'angry'
p176
(F0.375
F0.875
F0.25
F0.375
F0.875
F0.25
tp177
sS'negative'
p178
(F0.125
F0.875
F1.0
F0.125
F0.875
F1.0
tp179
sS'next'
p180
(F0.0
F0.125
F1.0
F0.0
F0.125
F1.0
tp181
sS'few'
p182
(F0.0
F0.0
F1.0
F0.0
F0.0
F1.0
tp183
sS'camera'
p184
(F0.0
F0.0
F1.0
I0
I0
I0
tp185
sS'call'
p186
(F0.375
F0.5
F1.0
I0
I0
I0
tp187
sS'iphone'
p188
g47
sS'gorgeous'
p189
(F0.75
F0.0
F0.25
F0.75
F0.0
F0.25
tp190
sS'minor'
p191
(F0.375
F0.75
F1.0
F0.375
F0.75
F1.0
tp192
sS'more'
p193
(F0.0
F0.0
F1.0
F0.0
F0.0
F1.0
tp194
sS'flat'
p195
(F0.5
F0.625
F1.0
F0.5
F0.625
F1.0
tp196
sS'rich'
p197
(F0.625
F0.375
F1.0
F0.625
F0.375
F1.0
tp198
sS'inclined'
p199
(F0.5
F0.125
F1.0
F0.25
F0.0
F1.0
tp200
sS'editable'
p201
g24
sS'aware'
p202
(F0.625
F0.0
F0.5
F0.625
F0.0
F0.5
tp203
sS'glass'
p204
(F0.0
F0.125
F1.0
I0
I0
I0
tp205
sS'visual'
p206
(F0.0
F0.375
F1.0
F0.0
F0.375
F1.0
tp207
sS'ignorant'
p208
(F0.0
F0.5
F0.875
F0.0
F0.5
F0.875
tp209
sS'excellent'
p210
(F1.0
F0.0
F0.0
F1.0
F0.0
F0.0
tp211
sS'ok'
p212
(F0.375
F0.125
F1.0
F0.375
F0.0
F0.75
tp213
sS'outdated'
p214
(F0.0
F0.75
F0.25
F0.0
F0.75
F0.25
tp215
sS'glad'
p216
(F0.75
F0.625
F1.0
F0.75
F0.625
F0.5
tp217
sS'disappointing'
p218
(F0.0
F0.75
F0.75
F0.0
F0.75
F0.25
tp219
sS'locked'
p220
(F0.0
F0.375
F1.0
I0
I0
I0
tp221
sS'left'
p222
(F0.125
F0.5
F1.0
F0.125
F0.5
F1.0
tp223
sS'mm'
p224
(F0.0
F0.0
F1.0
I0
I0
I0
tp225
sS'local'
p226
(F0.0
F0.0
F1.0
F0.0
F0.0
F1.0
tp227
sS'friendly'
p228
(F0.625
F0.25
F1.0
F0.625
F0.25
F1.0
tp229
sS'oled'
p230
(F0.0
F0.0
F1.0
I0
I0
I0
tp231
sS'unreal'
p232
(F0.25
F0.625
F0.875
F0.25
F0.625
F0.875
tp233
sS'thin'
p234
(F0.5
F0.25
F1.0
F0.5
F0.25
F1.0
tp235
sS'ascetic'
p236
(F0.5
F0.25
F1.0
F0.5
F0.25
F1.0
tp237
sS'beautiful'
p238
(F0.75
F0.0
F0.375
F0.75
F0.0
F0.375
tp239
sS'crazy'
p240
(F0.625
F0.5
F0.75
F0.625
F0.5
F0.75
tp241
sS'weaker'
p242
(F0.375
F0.5
F1.0
F0.375
F0.5
F1.0
tp243
sS'proprietary'
p244
(F0.0
F0.0
F1.0
F0.0
F0.0
F1.0
tp245
sS'scan'
p246
(F0.375
F0.0
F1.0
I0
I0
I0
tp247
sS'nexus'
p248
(F0.0
F0.0
F1.0
I0
I0
I0
tp249
sS'awesome'
p250
(F0.875
F0.125
F0.0
F0.875
F0.125
F0.0
tp251
sS'slim'
p252
(F0.5
F0.125
F1.0
F0.5
F0.125
F0.875
tp253
sS'high'
p254
(F0.5
F0.25
F1.0
F0.5
F0.25
F1.0
tp255
sS'unbiased'
p256
(F0.125
F0.5
F1.0
F0.125
F0.5
F1.0
tp257
sS'sharp'
p258
(F0.5
F0.625
F1.0
F0.5
F0.625
F1.0
tp259
sS'honest'
p260
(F0.75
F0.625
F0.625
F0.75
F0.625
F0.625
tp261
sS'absolute'
p262
(F0.625
F0.75
F0.75
F0.625
F0.75
F0.5
tp263
sS'huge'
p264
(F0.0
F0.125
F0.875
F0.0
F0.125
F0.875
tp265
sS's9'
p266
g24
sS's8'
p267
g24
sS'comfortable'
p268
(F0.75
F0.75
F0.75
F0.75
F0.75
F0.75
tp269
sS'defective'
p270
(F0.5
F0.75
F0.75
F0.5
F0.75
F0.75
tp271
sS'get'
p272
(F0.5
F0.25
F1.0
I0
I0
I0
tp273
sS's6'
p274
g16
sS'write'
p275
(F0.0
F0.0
F1.0
I0
I0
I0
tp276
sS'glowing'
p277
(F0.75
F0.125
F1.0
F0.75
F0.0
F0.25
tp278
sS'pure'
p279
(F0.625
F0.75
F1.0
F0.625
F0.75
F1.0
tp280
sS'dedicated'
p281
(F0.125
F0.0
F1.0
F0.125
F0.0
F0.875
tp282
sS'faulty'
p283
(F0.5
F0.75
F0.5
F0.5
F0.75
F0.5
tp284
sS'sim'
p285
g24
sS'massive'
p286
(F0.0
F0.0
F1.0
F0.0
F0.0
F1.0
tp287
sS'overall'
p288
(F0.0
F0.125
F1.0
F0.0
F0.0
F1.0
tp289
sS'earlier'
p290
(F0.0
F0.25
F1.0
F0.0
F0.25
F1.0
tp291
sS'wrong'
p292
(F0.25
F0.875
F1.0
F0.25
F0.875
F1.0
tp293
sS'disable'
p294
(F0.0
F0.375
F0.625
I0
I0
I0
tp295
sS'such'
p296
(F0.0
F0.125
F1.0
F0.0
F0.125
F1.0
tp297
sS'truly'
p298
(F0.625
F0.125
F1.0
F0.625
F0.125
F1.0
tp299
sS'short'
p300
(F0.375
F0.75
F1.0
F0.375
F0.75
F1.0
tp301
sS'awkward'
p302
(F0.5
F0.75
F0.625
F0.5
F0.75
F0.625
tp303
sS'third'
p304
(F0.0
F0.0
F1.0
F0.0
F0.0
F1.0
tp305
sS'light'
p306
(F0.625
F0.625
F1.0
F0.625
F0.625
F1.0
tp307
sS'feels'
p308
(F0.375
F0.25
F1.0
I0
I0
I0
tp309
sS'green'
p310
(F0.5
F0.75
F1.0
F0.5
F0.75
F1.0
tp311
sS'classy'
p312
(F0.375
F0.0
F0.625
F0.375
F0.0
F0.625
tp313
sS'tall'
p314
(F0.5
F0.875
F1.0
F0.5
F0.875
F0.5
tp315
sS'uninstall'
p316
g12
sS'cute'
p317
(F0.625
F0.0
F0.5
F0.625
F0.0
F0.5
tp318
sS'rounded'
p319
(F0.25
F0.0
F1.0
F0.25
F0.0
F0.75
tp320
sS'sooo'
p321
g16
sS'unacceptable'
p322
(F0.375
F0.875
F0.625
F0.375
F0.875
F0.625
tp323
sS'feature'
p324
(F0.375
F0.25
F1.0
I0
I0
I0
tp325
sS'thinner'
p326
(F0.5
F0.25
F1.0
F0.5
F0.25
F1.0
tp327
sS'looks'
p328
(F0.375
F0.375
F1.0
I0
I0
I0
tp329
sS'innovative'
p330
(F0.625
F0.0
F0.5
F0.625
F0.0
F0.5
tp331
sS'responsive'
p332
(F0.5
F0.125
F1.0
F0.5
F0.125
F1.0
tp333
sS'galaxy'
p334
(F0.0
F0.0
F1.0
I0
I0
I0
tp335
sS'ok.'
p336
g12
sS'perfect'
p337
(F0.75
F0.125
F1.0
F0.75
F0.125
F0.375
tp338
sS'adhesive'
p339
(F0.25
F0.5
F1.0
F0.25
F0.5
F0.25
tp340
sS'avid'
p341
(F0.5
F0.25
F0.5
F0.5
F0.25
F0.5
tp342
sS'disconnect'
p343
(F0.0
F0.25
F1.0
I0
I0
I0
tp344
sS'fit'
p345
(F0.75
F0.5
F1.0
F0.75
F0.0
F0.625
tp346
sS'susceptible'
p347
(F0.5
F0.125
F0.625
F0.5
F0.125
F0.625
tp348
sS'amazing'
p349
(F0.875
F0.25
F0.75
F0.875
F0.25
F0.25
tp350
sS'better'
p351
(F1.0
F0.333
F1.0
F1.0
F0.333
F1.0
tp352
sS'permanent'
p353
(F0.0
F0.625
F1.0
F0.0
F0.625
F0.375
tp354
sS'workable'
p355
(F0.375
F0.0
F0.625
F0.375
F0.0
F0.625
tp356
sS'decreased'
p357
(F0.0
F0.125
F1.0
F0.0
F0.125
F0.875
tp358
sS'main'
p359
(F0.375
F0.375
F1.0
F0.375
F0.375
F0.75
tp360
sS'easier'
p361
(F0.75
F0.625
F1.0
F0.75
F0.625
F1.0
tp362
sS'non'
p363
(F0.0
F0.625
F0.375
F0.0
F0.625
F0.375
tp364
sS'good'
p365
(F1.0
F0.125
F1.0
F1.0
F0.125
F1.0
tp366
sS'return'
p367
(F0.5
F0.125
F1.0
I0
I0
I0
tp368
sS'u2026'
p369
g47
sS'yo'
p370
g12
sS'dim'
p371
(F0.375
F0.75
F0.875
F0.375
F0.75
F0.75
tp372
sS'woww'
p373
g47
sS'safe'
p374
(F0.625
F0.375
F1.0
F0.5
F0.375
F1.0
tp375
sS'sooner'
p376
(F0.125
F0.0
F1.0
F0.125
F0.0
F1.0
tp377
sS'functional'
p378
(F0.5
F0.0
F1.0
F0.5
F0.0
F1.0
tp379
sS'half'
p380
(F0.0
F0.375
F1.0
F0.0
F0.375
F1.0
tp381
sS'front'
p382
(F0.0
F0.125
F1.0
F0.0
F0.0
F1.0
tp383
sS'ud83d'
p384
g16
sS'lifelong'
p385
(F0.0
F0.0
F1.0
F0.0
F0.0
F1.0
tp386
sS'complain'
p387
(F0.25
F0.75
F0.75
I0
I0
I0
tp388
sS'bigger'
p389
(F0.5
F0.5
F1.0
F0.5
F0.5
F1.0
tp390
sS'wont'
p391
(F0.0
F0.0
F1.0
I0
I0
I0
tp392
sS'delicate'
p393
(F0.75
F0.75
F0.625
F0.75
F0.75
F0.625
tp394
sS'didn'
p395
g45
sS'micro'
p396
(F0.125
F0.25
F0.625
F0.125
F0.25
F0.625
tp397
sS'noticable'
p398
(I-1
I-1
I-1
I-1
I-1
I-1
tp399
sS'reasonable'
p400
(F0.5
F0.125
F0.75
F0.5
F0.125
F0.75
tp401
sS'shy'
p402
(F0.375
F0.25
F1.0
F0.375
F0.25
F1.0
tp403
sS'beveled'
p404
(F0.0
F0.0
F1.0
I0
I0
I0
tp405
sS'higher'
p406
(F0.5
F0.25
F1.0
F0.5
F0.25
F1.0
tp407
sS'repaired'
p408
(F0.25
F0.125
F1.0
I0
I0
I0
tp409
sS'mean'
p410
(F1.0
F0.75
F1.0
F1.0
F0.75
F1.0
tp411
sS'heavy'
p412
(F0.375
F0.5
F1.0
F0.375
F0.5
F1.0
tp413
sS'hard'
p414
(F0.25
F0.875
F1.0
F0.25
F0.875
F1.0
tp415
sS'related'
p416
(F0.25
F0.0
F1.0
F0.0
F0.0
F1.0
tp417
sS'extended'
p418
(F0.375
F0.25
F1.0
F0.375
F0.25
F1.0
tp419
sS'ex'
p420
(F0.0
F0.0
F1.0
F0.0
F0.0
F1.0
tp421
sS'udd17'
p422
g126
sS'satisfied'
p423
(F0.5
F0.0
F1.0
F0.375
F0.0
F1.0
tp424
sS'special'
p425
(F0.25
F0.0
F1.0
F0.25
F0.0
F1.0
tp426
sS'large'
p427
(F0.5
F0.25
F1.0
F0.5
F0.25
F1.0
tp428
sS'3rd'
p429
(F0.0
F0.0
F1.0
F0.0
F0.0
F1.0
tp430
sS'electronic'
p431
(F0.0
F0.0
F1.0
F0.0
F0.0
F1.0
tp432
sS'content'
p433
(F0.375
F0.0
F1.0
F0.0
F0.0
F1.0
tp434
sS'longtime'
p435
(F0.0
F0.0
F1.0
F0.0
F0.0
F1.0
tp436
sS'hilarious'
p437
(F0.375
F0.5
F0.125
F0.375
F0.5
F0.125
tp438
sS'u2019s'
p439
g24
sS'sluggish'
p440
(F0.25
F0.5
F1.0
F0.25
F0.5
F1.0
tp441
sS'u2019t'
p442
g16
sS'common'
p443
(F0.25
F0.778
F1.0
F0.25
F0.778
F1.0
tp444
sS'dictionary'
p445
(F0.0
F0.0
F1.0
I0
I0
I0
tp446
sS'hefty'
p447
(F0.125
F0.0
F1.0
F0.125
F0.0
F1.0
tp448
sS'forgive'
p449
(F0.25
F0.0
F1.0
I0
I0
I0
tp450
sS'free'
p451
(F0.5
F0.75
F1.0
F0.375
F0.75
F1.0
tp452
sS'quite'
p453
(F0.5
F0.625
F0.5
F0.5
F0.625
F0.5
tp454
sS'small'
p455
(F0.125
F0.875
F1.0
F0.125
F0.875
F1.0
tp456
sS'brightest'
p457
(F0.75
F0.75
F1.0
F0.75
F0.75
F1.0
tp458
sS'latest'
p459
(F0.125
F0.25
F1.0
F0.125
F0.25
F1.0
tp460
sS'u201d'
p461
g45
sS'revolutionary'
p462
(F0.375
F0.25
F1.0
F0.375
F0.25
F1.0
tp463
sS'scary'
p464
(F0.0
F0.75
F0.25
F0.0
F0.75
F0.25
tp465
sS'u2018evolutionary'
p466
g20
sS'needing'
p467
(F0.25
F0.25
F0.75
I0
I0
I0
tp468
sS'terrible'
p469
(F0.125
F0.875
F0.625
F0.125
F0.875
F0.625
tp470
sS'feasible'
p471
(F0.375
F0.0
F0.625
F0.375
F0.0
F0.625
tp472
sS'youll'
p473
g47
sS'speedy'
p474
(F0.5
F0.0
F1.0
F0.5
F0.0
F1.0
tp475
sS'isn'
p476
(F0.0
F0.0
F1.0
I0
I0
I0
tp477
sS'retail'
p478
(F0.0
F0.0
F1.0
F0.0
F0.0
F1.0
tp479
sS'loud'
p480
(F0.375
F0.5
F1.0
F0.375
F0.5
F1.0
tp481
sS'top'
p482
(F0.125
F0.375
F1.0
F0.0
F0.0
F1.0
tp483
sS'first'
p484
(F0.625
F0.0
F1.0
F0.625
F0.0
F1.0
tp485
sS'laggy'
p486
g12
sS'major'
p487
(F0.625
F0.375
F1.0
F0.625
F0.375
F1.0
tp488
sS'swipe'
p489
(F0.0
F0.125
F1.0
I0
I0
I0
tp490
sS'powerful'
p491
(F0.5
F0.0
F1.0
F0.5
F0.0
F1.0
tp492
sS'fancy'
p493
(F0.5
F0.625
F1.0
F0.0
F0.375
F0.625
tp494
sS'warped'
p495
(F0.0
F0.0
F1.0
F0.0
F0.0
F1.0
tp496
sS'long'
p497
(F0.375
F0.5
F1.0
F0.375
F0.5
F1.0
tp498
sS'impossible'
p499
(F0.5
F0.75
F0.875
F0.5
F0.75
F0.625
tp500
sS'open'
p501
(F0.5
F0.75
F1.0
F0.5
F0.75
F1.0
tp502
sS'maple'
p503
(F0.0
F0.0
F1.0
I0
I0
I0
tp504
sS'little'
p505
(F0.125
F0.75
F1.0
F0.125
F0.75
F1.0
tp506
sS'silent'
p507
(F0.5
F0.625
F1.0
F0.5
F0.625
F1.0
tp508
sS'privacy'
p509
(F0.375
F0.125
F0.625
I0
I0
I0
tp510
sS'durable'
p511
(F0.0
F0.0
F1.0
F0.0
F0.0
F1.0
tp512
sS'smoother'
p513
(F0.625
F0.375
F1.0
F0.625
F0.375
F1.0
tp514
sS'least'
p515
(F0.0
F0.0
F1.0
F0.0
F0.0
F1.0
tp516
sS'paint'
p517
(F0.0
F0.0
F1.0
I0
I0
I0
tp518
sS'wonderful'
p519
(F0.75
F0.0
F0.25
F0.75
F0.0
F0.25
tp520
sS'listed'
p521
(F0.0
F0.0
F1.0
F0.0
F0.0
F1.0
tp522
sS'programmable'
p523
g12
sS'inconvenient'
p524
(F0.125
F0.75
F0.25
F0.125
F0.75
F0.25
tp525
sS'final'
p526
(F0.0
F0.625
F1.0
F0.0
F0.625
F1.0
tp527
sS'painful'
p528
(F0.125
F0.875
F0.375
F0.125
F0.875
F0.375
tp529
sS'inconsequential'
p530
(F0.625
F0.5
F0.5
F0.625
F0.5
F0.5
tp531
sS'ridiculous'
p532
(F0.625
F0.625
F0.375
F0.625
F0.625
F0.375
tp533
sS'predictable'
p534
(F0.0
F0.0
F1.0
F0.0
F0.0
F1.0
tp535
sS'convinced'
p536
(F0.125
F0.375
F0.875
F0.125
F0.375
F0.875
tp537
sS'haven'
p538
(F0.0
F0.0
F1.0
I0
I0
I0
tp539
sS'wide'
p540
(F0.375
F0.625
F1.0
F0.375
F0.625
F1.0
tp541
sS'boring'
p542
(F0.125
F0.25
F1.0
F0.0
F0.25
F0.75
tp543
sS'likely'
p544
(F0.5
F0.75
F1.0
F0.5
F0.75
F1.0
tp545
sS'steep'
p546
(F0.375
F0.75
F1.0
F0.375
F0.75
F1.0
tp547
sS'cleaner'
p548
(F0.875
F0.625
F1.0
F0.875
F0.625
F1.0
tp549
sS'nicer'
p550
(F0.875
F0.375
F0.625
F0.875
F0.375
F0.625
tp551
sS'outstanding'
p552
(F0.75
F0.125
F1.0
F0.75
F0.125
F1.0
tp553
sS'pro'
p554
(F0.0
F0.0
F1.0
F0.0
F0.0
F1.0
tp555
sS'mine'
p556
(F0.0
F0.125
F1.0
I0
I0
I0
tp557
sS'sad'
p558
(F0.125
F1.0
F0.75
F0.125
F1.0
F0.75
tp559
sS'curved'
p560
(F0.125
F0.125
F1.0
F0.125
F0.125
F0.75
tp561
sS'vulnerable'
p562
(F0.5
F0.375
F0.625
F0.5
F0.375
F0.625
tp563
sS'forced'
p564
(F0.375
F0.625
F1.0
F0.125
F0.625
F1.0
tp565
sS'genuine'
p566
(F0.375
F0.636
F0.75
F0.375
F0.636
F0.75
tp567
sS'efficient'
p568
(F0.5
F0.375
F0.5
F0.5
F0.375
F0.5
tp569
sS'convenient'
p570
(F0.625
F0.25
F1.0
F0.625
F0.25
F1.0
tp571
sS'mic'
p572
g12
sS'able'
p573
(F0.25
F0.0
F0.875
F0.25
F0.0
F0.875
tp574
sS'aside'
p575
(F0.0
F0.5
F1.0
F0.0
F0.5
F1.0
tp576
sS'note'
p577
(F0.875
F0.25
F1.0
I0
I0
I0
tp578
sS'potential'
p579
(F0.0
F0.25
F1.0
F0.0
F0.25
F0.75
tp580
sS'useless'
p581
(F0.125
F0.625
F0.25
F0.125
F0.625
F0.25
tp582
sS'online'
p583
(F0.0
F0.0
F1.0
F0.0
F0.0
F1.0
tp584
sS'clunky'
p585
(F0.125
F0.25
F1.0
F0.125
F0.25
F1.0
tp586
sS'added'
p587
(F0.5
F0.25
F1.0
I0
I0
I0
tp588
sS'multiple'
p589
(F0.0
F0.0
F1.0
F0.0
F0.0
F1.0
tp590
sS'normal'
p591
(F0.5
F0.5
F1.0
F0.5
F0.5
F1.0
tp592
sS'thrilled'
p593
(F0.375
F0.625
F1.0
F0.25
F0.625
F0.125
tp594
sS'unused'
p595
(F0.5
F0.75
F0.875
F0.5
F0.75
F0.875
tp596
sS'most'
p597
(F0.0
F0.0
F1.0
F0.0
F0.0
F1.0
tp598
sS'regular'
p599
(F0.375
F0.5
F1.0
F0.375
F0.5
F1.0
tp600
sS'significant'
p601
(F0.375
F0.0
F1.0
F0.375
F0.0
F1.0
tp602
sS'rhe'
p603
g16
sS'ude01'
p604
g47
sS'don'
p605
(F0.125
F0.0
F1.0
I0
I0
I0
tp606
sS'sturdy'
p607
(F0.5
F0.25
F0.625
F0.5
F0.25
F0.625
tp608
sS'mobile'
p609
(F0.125
F0.0
F1.0
F0.125
F0.0
F1.0
tp610
sS'unsealed'
p611
(F0.0
F0.625
F1.0
F0.0
F0.625
F0.375
tp612
sS'clear'
p613
(F0.625
F0.625
F1.0
F0.625
F0.625
F1.0
tp614
sS'upset'
p615
(F0.25
F0.875
F1.0
F0.0
F0.875
F1.0
tp616
sS'tooth'
p617
(F0.125
F0.0
F1.0
I0
I0
I0
tp618
sS'optical'
p619
(F0.0
F0.0
F1.0
F0.0
F0.0
F1.0
tp620
sS'tech'
p621
(F0.0
F0.0
F1.0
I0
I0
I0
tp622
sS'absurd'
p623
(F0.625
F0.0
F1.0
F0.625
F0.0
F0.625
tp624
sS'clean'
p625
(F0.875
F0.625
F1.0
F0.875
F0.625
F1.0
tp626
sS'jittery'
p627
(F0.375
F0.125
F1.0
F0.375
F0.125
F1.0
tp628
sS'professional'
p629
(F0.25
F0.125
F1.0
F0.25
F0.0
F1.0
tp630
sS'typical'
p631
(F0.5
F0.0
F1.0
F0.5
F0.0
F1.0
tp632
sS'annoyed'
p633
(F0.0
F0.625
F1.0
F0.0
F0.625
F0.5
tp634
sS'overpriced'
p635
(F0.5
F0.0
F0.875
F0.125
F0.0
F0.875
tp636
sS'gold'
p637
(F0.25
F0.125
F1.0
F0.0
F0.125
F1.0
tp638
sS'exclusive'
p639
(F0.0
F0.75
F1.0
F0.0
F0.75
F1.0
tp640
sS'german'
p641
(F0.0
F0.0
F1.0
F0.0
F0.0
F1.0
tp642
sS'text'
p643
(F0.0
F0.0
F1.0
I0
I0
I0
tp644
sS'random'
p645
(F0.125
F0.0
F0.875
F0.125
F0.0
F0.875
tp646
sS'cheap'
p647
(F0.125
F0.875
F0.75
F0.125
F0.875
F0.75
tp648
sS'bright'
p649
(F0.75
F0.75
F1.0
F0.75
F0.75
F1.0
tp650
sS'excessive'
p651
(F0.125
F0.5
F0.5
F0.125
F0.5
F0.5
tp652
sS'fine'
p653
(F0.625
F0.125
F1.0
F0.625
F0.125
F1.0
tp654
sS'pleased'
p655
(F0.625
F0.375
F1.0
F0.625
F0.375
F0.375
tp656
sS'principal'
p657
(F0.375
F0.0
F1.0
F0.375
F0.0
F0.625
tp658
sS'instaneous'
p659
g16
sS'unfinished'
p660
(F0.0
F0.625
F0.75
F0.0
F0.625
F0.75
tp661
sS'nervous'
p662
(F0.125
F0.625
F1.0
F0.125
F0.625
F1.0
tp663
sS'layman'
p664
(F0.0
F0.75
F0.25
I0
I0
I0
tp665
sS'unhappy'
p666
(F0.125
F0.875
F0.5
F0.125
F0.875
F0.5
tp667
sS'failed'
p668
(F0.0
F0.5
F0.875
I0
I0
I0
tp669
sS'only'
p670
(F0.25
F0.25
F1.0
F0.25
F0.25
F1.0
tp671
sS'black'
p672
(F0.25
F0.75
F1.0
F0.25
F0.75
F1.0
tp673
sS'pretty'
p674
(F0.875
F0.875
F0.625
F0.875
F0.875
F0.625
tp675
sS'sd'
p676
(F0.0
F0.0
F1.0
I0
I0
I0
tp677
sS'adequate'
p678
(F0.25
F0.375
F1.0
F0.25
F0.375
F1.0
tp679
sS'unknowledgeable'
p680
(F0.0
F0.125
F0.875
F0.0
F0.125
F0.875
tp681
sS'spiffy'
p682
(F0.375
F0.125
F0.5
F0.375
F0.125
F0.5
tp683
sS'touchscreen'
p684
(F0.0
F0.0
F1.0
I0
I0
I0
tp685
sS'legible'
p686
(F0.0
F0.0
F1.0
F0.0
F0.0
F1.0
tp687
sS'workin'
p688
g16
sS'waterproof'
p689
(F0.0
F0.625
F1.0
F0.0
F0.625
F0.375
tp690
sS'familiar'
p691
(F0.5
F0.125
F1.0
F0.5
F0.125
F0.625
tp692
sS'stop'
p693
(F0.125
F0.375
F1.0
I0
I0
I0
tp694
sS'da'
p695
(F0.0
F0.0
F1.0
I0
I0
I0
tp696
sS'amazon'
p697
(F0.125
F0.0
F1.0
I0
I0
I0
tp698
sS'fastest'
p699
(F0.5
F0.625
F1.0
F0.5
F0.625
F1.0
tp700
sS'international'
p701
(F0.0
F0.5
F1.0
F0.0
F0.5
F0.875
tp702
sS'instinctive'
p703
(F0.25
F0.125
F0.625
F0.25
F0.125
F0.625
tp704
sS'freaking'
p705
(F0.0
F0.0
F1.0
I0
I0
I0
tp706
sS'prime'
p707
(F0.625
F0.25
F1.0
F0.625
F0.25
F1.0
tp708
sS'intuitive'
p709
(F0.25
F0.0
F1.0
F0.25
F0.0
F1.0
tp710
sS'frustrated'
p711
(F0.0
F0.5
F1.0
F0.0
F0.5
F0.5
tp712
sS'worried'
p713
(F0.375
F0.875
F1.0
F0.0
F0.875
F0.25
tp714
sS'bad'
p715
(F0.25
F1.0
F0.625
F0.25
F1.0
F0.625
tp716
sS'stupid'
p717
(F0.0
F0.75
F0.875
F0.0
F0.75
F0.875
tp718
sS'streamlined'
p719
(F0.25
F0.125
F1.0
F0.25
F0.125
F0.625
tp720
sS'valid'
p721
(F0.5
F0.0
F0.875
F0.5
F0.0
F0.875
tp722
sS'futuristic'
p723
(F0.0
F0.0
F1.0
F0.0
F0.0
F1.0
tp724
sS'predictive'
p725
(F0.0
F0.0
F1.0
F0.0
F0.0
F1.0
tp726
sS'untrue'
p727
(F0.25
F0.75
F0.75
F0.25
F0.75
F0.75
tp728
sS'fair'
p729
(F0.75
F0.625
F1.0
F0.75
F0.625
F1.0
tp730
sS'rockstar'
p731
g399
sS'lazy'
p732
(F0.0
F0.0
F1.0
F0.0
F0.0
F1.0
tp733
sS'dimmest'
p734
(F0.375
F0.75
F0.75
F0.375
F0.75
F0.75
tp735
sS'see'
p736
(F0.75
F0.125
F1.0
I0
I0
I0
tp737
sS'individual'
p738
(F0.0
F0.0
F1.0
F0.0
F0.0
F1.0
tp739
sS'dumb'
p740
(F0.0
F0.625
F1.0
F0.0
F0.625
F1.0
tp741
sS'desperate'
p742
(F0.5
F0.625
F0.75
F0.5
F0.625
F0.625
tp743
sS'horrendous'
p744
(F0.0
F0.625
F0.375
F0.0
F0.625
F0.375
tp745
sS'btm'
p746
g24
sS'close'
p747
(F0.625
F0.375
F1.0
F0.625
F0.375
F1.0
tp748
sS'pebble'
p749
(F0.0
F0.0
F1.0
I0
I0
I0
tp750
sS'yes'
p751
(F0.25
F0.0
F0.75
I0
I0
I0
tp752
sS'packed'
p753
(F0.0
F0.125
F1.0
F0.0
F0.125
F1.0
tp754
sS'nanosim'
p755
g45
sS'please'
p756
(F0.625
F0.0
F1.0
F0.125
F0.0
F0.875
tp757
sS'enough'
p758
(F0.125
F0.0
F1.0
F0.125
F0.0
F0.875
tp759
sS'unable'
p760
(F0.125
F0.75
F0.625
F0.125
F0.75
F0.625
tp761
sS'various'
p762
(F0.25
F0.375
F0.75
F0.25
F0.375
F0.75
tp763
sS'horrible'
p764
(F0.0
F0.625
F0.375
F0.0
F0.625
F0.375
tp765
sS'numerous'
p766
(F0.0
F0.125
F0.875
F0.0
F0.125
F0.875
tp767
sS'available'
p768
(F0.375
F0.0
F1.0
F0.375
F0.0
F1.0
tp769
sS'comparable'
p770
(F0.5
F0.0
F0.5
F0.5
F0.0
F0.5
tp771
sS'foldable'
p772
(F0.375
F0.0
F0.625
F0.375
F0.0
F0.625
tp773
sS'screen'
p774
(F0.375
F0.375
F1.0
I0
I0
I0
tp775
sS'weak'
p776
(F0.375
F0.5
F1.0
F0.375
F0.5
F1.0
tp777
sS'untouched'
p778
(F0.25
F0.625
F0.5
F0.25
F0.625
F0.5
tp779
sS'white'
p780
(F0.75
F0.5
F1.0
F0.75
F0.5
F1.0
tp781
sS'rapid'
p782
(F0.5
F0.0
F1.0
F0.5
F0.0
F1.0
tp783
sS'removable'
p784
(F0.625
F0.125
F0.75
F0.625
F0.125
F0.75
tp785
sS'last'
p786
(F0.375
F0.625
F1.0
F0.375
F0.625
F1.0
tp787
sS'gimmicky'
p788
g16
sS'resistant'
p789
(F0.125
F0.625
F0.875
F0.125
F0.625
F0.875
tp790
sS'many'
p791
(F0.0
F0.0
F1.0
F0.0
F0.0
F1.0
tp792
sS'ill'
p793
(F0.25
F0.875
F0.625
F0.25
F0.875
F0.625
tp794
sS'personal'
p795
(F0.5
F0.0
F1.0
F0.5
F0.0
F1.0
tp796
sS's'
p797
(F0.0
F0.0
F1.0
I0
I0
I0
tp798
sS'layered'
p799
(F0.0
F0.0
F1.0
F0.0
F0.0
F1.0
tp800
sS'sceptical'
p801
(F0.375
F0.375
F0.5
F0.375
F0.375
F0.5
tp802
sS'whole'
p803
(F0.75
F0.125
F1.0
F0.75
F0.125
F1.0
tp804
sS'nearby'
p805
(F0.0
F0.625
F1.0
F0.0
F0.625
F1.0
tp806
sS'subpar'
p807
g47
sS'tough'
p808
(F0.375
F0.875
F1.0
F0.375
F0.875
F0.625
tp809
sS'lackluster'
p810
(F0.375
F0.375
F0.5
F0.375
F0.375
F0.5
tp811
sS'battery'
p812
(F0.0
F0.25
F1.0
I0
I0
I0
tp813
sS'narrower'
p814
(F0.5
F0.25
F0.875
F0.5
F0.25
F0.875
tp815
sS'2nd'
p816
(F0.0
F0.0
F1.0
F0.0
F0.0
F1.0
tp817
sS'learning'
p818
(F0.5
F0.125
F1.0
I0
I0
I0
tp819
sS'de3f'
p820
g45
sS'expensive'
p821
(F0.5
F0.0
F0.5
F0.5
F0.0
F0.5
tp822
sS'sensible'
p823
(F0.625
F0.0
F0.875
F0.625
F0.0
F0.875
tp824
sS'unusual'
p825
(F0.375
F0.625
F0.875
F0.375
F0.625
F0.875
tp826
sS'strong'
p827
(F0.75
F0.875
F1.0
F0.75
F0.875
F1.0
tp828
sS'described'
p829
(F0.0
F0.0
F1.0
F0.0
F0.0
F1.0
tp830
sS'capable'
p831
(F0.375
F0.25
F1.0
F0.375
F0.25
F1.0
tp832
sS'chrome'
p833
(F0.0
F0.125
F1.0
I0
I0
I0
tp834
sS'decent'
p835
(F0.875
F0.0
F1.0
F0.875
F0.0
F1.0
tp836
sS'due'
p837
(F0.75
F0.25
F1.0
F0.75
F0.25
F1.0
tp838
sS'tiny'
p839
(F0.0
F0.0
F1.0
F0.0
F0.0
F1.0
tp840
sS'breath'
p841
(F0.0
F0.0
F1.0
I0
I0
I0
tp842
sS'willing'
p843
(F0.5
F0.625
F1.0
F0.5
F0.625
F0.5
tp844
sS'refurbished'
p845
(F0.25
F0.0
F0.75
I0
I0
I0
tp846
sS'basic'
p847
(F0.25
F0.0
F1.0
F0.25
F0.0
F1.0
tp848
sS'technical'
p849
(F0.5
F0.0
F1.0
F0.5
F0.0
F1.0
tp850
sS'rebuilt'
p851
(F0.0
F0.0
F1.0
I0
I0
I0
tp852
sS'empty'
p853
(F0.5
F0.0
F1.0
F0.5
F0.0
F1.0
tp854
sS'perplexed'
p855
(F0.125
F0.75
F0.875
F0.0
F0.75
F0.25
tp856
sS'verizon'
p857
g12
sS'crappy'
p858
(F0.0
F0.75
F0.25
F0.0
F0.75
F0.25
tp859
sS'receive'
p860
(F0.75
F0.0
F1.0
I0
I0
I0
tp861
sS'careful'
p862
(F0.5
F0.25
F0.75
F0.5
F0.25
F0.75
tp863
sS'present'
p864
(F0.125
F0.125
F1.0
F0.0
F0.125
F1.0
tp865
sS'sound'
p866
(F0.75
F0.125
F1.0
F0.75
F0.125
F1.0
tp867
sS'multi'
p868
g24
sS'mega'
p869
g12
sS'solid'
p870
(F0.875
F0.75
F1.0
F0.875
F0.75
F1.0
tp871
sS'straight'
p872
(F0.625
F0.625
F1.0
F0.625
F0.625
F1.0
tp873
sS'grainy'
p874
(F0.0
F0.0
F1.0
F0.0
F0.0
F1.0
tp875
sS'lesser'
p876
(F0.375
F0.5
F1.0
F0.375
F0.5
F1.0
tp877
sS'ugly'
p878
(F0.0
F0.75
F0.625
F0.0
F0.75
F0.625
tp879
sS'stunning'
p880
(F0.75
F0.75
F1.0
F0.75
F0.75
F1.0
tp881
sS'neat'
p882
(F0.875
F0.375
F0.75
F0.875
F0.375
F0.75
tp883
sS'smart'
p884
(F0.75
F0.875
F0.875
F0.75
F0.875
F0.875
tp885
sS'promising'
p886
(F0.75
F0.375
F1.0
F0.75
F0.375
F0.625
tp887
sS'fun'
p888
(F0.375
F0.5
F1.0
I0
I0
I0
tp889
sS'cracked'
p890
(F0.125
F0.5
F1.0
F0.0
F0.375
F0.875
tp891
sS'voice'
p892
(F0.25
F0.0
F1.0
I0
I0
I0
tp893
sS'frustrating'
p894
(F0.625
F0.375
F1.0
F0.625
F0.375
F0.625
tp895
sS'stupidest'
p896
(F0.0
F0.75
F0.875
F0.0
F0.75
F0.875
tp897
sS'upgrade'
p898
(F0.5
F0.125
F1.0
I0
I0
I0
tp899
sS'larger'
p900
(F0.5
F0.25
F1.0
F0.5
F0.25
F1.0
tp901
sS'ip'
p902
(F0.0
F0.0
F1.0
I0
I0
I0
tp903
sS'secondary'
p904
(F0.333
F0.75
F1.0
F0.333
F0.75
F0.75
tp905
sS'hardware'
p906
(F0.0
F0.0
F1.0
I0
I0
I0
tp907
sS'cant'
p908
(F0.0
F0.125
F1.0
I0
I0
I0
tp909
sS'dual'
p910
(F0.5
F0.25
F1.0
F0.5
F0.25
F1.0
tp911
sS'ready'
p912
(F0.5
F0.25
F1.0
F0.5
F0.0
F1.0
tp913
sS'rid'
p914
(F0.5
F0.0
F0.5
I0
I0
I0
tp915
sS'funny'
p916
(F0.5
F0.5
F1.0
F0.5
F0.5
F0.5
tp917
sS'different'
p918
(F0.625
F0.625
F1.0
F0.625
F0.625
F1.0
tp919
sS'verified'
p920
(F0.5
F0.0
F1.0
F0.25
F0.0
F0.75
tp921
sS'sensitive'
p922
(F0.375
F0.625
F1.0
F0.375
F0.625
F1.0
tp923
sS't.'
p924
g12
sS'suckier'
p925
g47
sS'diehard'
p926
(F0.0
F0.0
F1.0
I0
I0
I0
tp927
sS'same'
p928
(F0.25
F0.375
F1.0
F0.25
F0.375
F1.0
tp929
sS'configurable'
p930
g24
sS'utilitarian'
p931
(F0.125
F0.0
F1.0
F0.125
F0.0
F1.0
tp932
sS'strange'
p933
(F0.375
F0.375
F1.0
F0.375
F0.375
F1.0
tp934
sS'largest'
p935
(F0.5
F0.25
F1.0
F0.5
F0.25
F1.0
tp936
sS'android'
p937
(F0.0
F0.0
F1.0
I0
I0
I0
tp938
sS'several'
p939
(F0.25
F0.5
F0.875
F0.25
F0.5
F0.875
tp940
sS'difficult'
p941
(F0.0
F0.75
F0.375
F0.0
F0.75
F0.375
tp942
sS'independent'
p943
(F0.25
F0.625
F1.0
F0.25
F0.625
F1.0
tp944
sS'used'
p945
(F0.375
F0.125
F1.0
F0.375
F0.125
F1.0
tp946
sS'damn'
p947
(F0.375
F0.5
F1.0
F0.375
F0.375
F1.0
tp948
sS'ios'
p949
(F0.125
F0.0
F1.0
I0
I0
I0
tp950
sS'superior'
p951
(F0.75
F0.0
F1.0
F0.625
F0.0
F1.0
tp952
sS'user'
p953
(F0.0
F0.0
F1.0
I0
I0
I0
tp954
sS'frequently'
p955
(F0.0
F0.0
F1.0
F0.0
F0.0
F1.0
tp956
sS'recent'
p957
(F0.25
F0.0
F1.0
F0.0
F0.0
F1.0
tp958
sS'dark'
p959
(F0.25
F0.75
F1.0
F0.25
F0.75
F1.0
tp960
sS'picky'
p961
(F0.125
F0.125
F0.75
F0.125
F0.125
F0.75
tp962
sS'older'
p963
(F0.5
F0.375
F1.0
F0.5
F0.375
F1.0
tp964
sS'i'
p965
(F0.0
F0.25
F1.0
F0.0
F0.25
F0.75
tp966
sS'com'
p967
g24
sS'greatest'
p968
(F0.875
F0.125
F1.0
F0.875
F0.125
F1.0
tp969
sS'audio'
p970
(F0.0
F0.0
F1.0
I0
I0
I0
tp971
sS'corporate'
p972
(F0.0
F0.5
F1.0
F0.0
F0.5
F1.0
tp973
sS'usual'
p974
(F0.125
F0.0
F0.875
F0.125
F0.0
F0.875
tp975
sS'sims'
p976
g12
sS'newest'
p977
(F0.375
F0.625
F1.0
F0.375
F0.625
F1.0
tp978
sS'less'
p979
(F0.125
F0.5
F1.0
F0.125
F0.5
F1.0
tp980
sS'upgrading'
p981
(F0.5
F0.125
F0.875
I0
I0
I0
tp982
sS'accurate'
p983
(F0.5
F0.0
F0.875
F0.5
F0.0
F0.875
tp984
sS'modifiable'
p985
(F0.5
F0.0
F0.5
F0.5
F0.0
F0.5
tp986
sS'unfair'
p987
(F0.375
F0.375
F0.25
F0.375
F0.375
F0.25
tp988
sS'valuable'
p989
(F0.625
F0.0
F1.0
F0.625
F0.0
F1.0
tp990
sS'ud83e'
p991
g126
sS'underlying'
p992
(F0.25
F0.25
F1.0
F0.25
F0.25
F1.0
tp993
sS'thumbs'
p994
(F0.25
F0.0
F1.0
I0
I0
I0
tp995
sS'advertised'
p996
(F0.0
F0.0
F1.0
F0.0
F0.0
F1.0
tp997
sS'touch'
p998
(F0.5
F0.375
F1.0
I0
I0
I0
tp999
sS'alternative'
p1000
(F0.125
F0.125
F0.875
F0.125
F0.125
F0.875
tp1001
sS'previous'
p1002
(F0.0
F0.25
F1.0
F0.0
F0.25
F1.0
tp1003
sS'loading'
p1004
(F0.0
F0.375
F1.0
I0
I0
I0
tp1005
sS'microsd'
p1006
g47
sS'simple'
p1007
(F0.875
F0.625
F1.0
F0.875
F0.625
F0.625
tp1008
sS'interested'
p1009
(F0.625
F0.125
F0.875
F0.625
F0.125
F0.875
tp1010
sS'easy'
p1011
(F0.75
F0.625
F1.0
F0.75
F0.625
F1.0
tp1012
sS'pitiful'
p1013
(F0.333
F1.0
F0.0
F0.333
F1.0
F0.0
tp1014
sS'heavier'
p1015
(F0.375
F0.5
F1.0
F0.375
F0.5
F1.0
tp1016
sS'surprised'
p1017
(F0.125
F0.25
F1.0
F0.125
F0.25
F0.625
tp1018
sS'build'
p1019
(F0.0
F0.0
F1.0
I0
I0
I0
tp1020
sS'real'
p1021
(F0.375
F0.625
F1.0
F0.375
F0.625
F1.0
tp1022
sS'noticeable'
p1023
(F0.625
F0.125
F0.875
F0.625
F0.125
F0.875
tp1024
sS'usable'
p1025
(F0.25
F0.0
F1.0
F0.25
F0.0
F1.0
tp1026
sS'questionable'
p1027
(F0.0
F0.0
F1.0
F0.0
F0.0
F1.0
tp1028
sS'spectacular'
p1029
(F0.25
F0.125
F1.0
F0.25
F0.125
F1.0
tp1030
sS'big'
p1031
(F0.5
F0.5
F1.0
F0.5
F0.5
F1.0
tp1032
sS'couple'
p1033
(F0.0
F0.25
F1.0
I0
I0
I0
tp1034
sS'possible'
p1035
(F0.75
F0.25
F1.0
F0.5
F0.25
F0.75
tp1036
sS'early'
p1037
(F0.375
F0.25
F1.0
F0.375
F0.25
F1.0
tp1038
sS'darn'
p1039
(F0.125
F0.125
F1.0
I0
I0
I0
tp1040
sS'facial'
p1041
(F0.0
F0.0
F1.0
F0.0
F0.0
F1.0
tp1042
sS'underwhelmed'
p1043
g47
sS'unique'
p1044
(F0.5
F0.0
F1.0
F0.5
F0.0
F1.0
tp1045
sS'disappointed'
p1046
(F0.0
F0.5
F0.75
F0.0
F0.5
F0.5
tp1047
sS'rear'
p1048
(F0.0
F0.0
F1.0
F0.0
F0.0
F1.0
tp1049
sS'helpful'
p1050
(F0.25
F0.0
F0.75
F0.25
F0.0
F0.75
tp1051
sS'skeptical'
p1052
(F0.375
F0.375
F0.5
F0.375
F0.375
F0.5
tp1053
sS'crisp'
p1054
(F0.5
F0.125
F1.0
F0.5
F0.125
F1.0
tp1055
sS'like'
p1056
(F1.0
F0.25
F1.0
F0.5
F0.25
F0.75
tp1057
sS'vibrant'
p1058
(F0.625
F0.25
F0.375
F0.625
F0.25
F0.375
tp1059
sS'manual'
p1060
(F0.125
F0.375
F1.0
F0.125
F0.375
F1.0
tp1061
sS'unnecessary'
p1062
(F0.25
F0.25
F0.5
F0.25
F0.25
F0.5
tp1063
sS'specific'
p1064
(F0.0
F0.0
F1.0
F0.0
F0.0
F1.0
tp1065
sS't'
p1066
(F0.0
F0.0
F1.0
I0
I0
I0
tp1067
sS'lose'
p1068
(F0.0
F0.5
F1.0
I0
I0
I0
tp1069
sS'stylish'
p1070
(F0.5
F0.125
F1.0
F0.5
F0.125
F1.0
tp1071
sS'italian'
p1072
(F0.0
F0.0
F1.0
F0.0
F0.0
F1.0
tp1073
sS'right'
p1074
(F0.875
F0.25
F1.0
F0.875
F0.25
F1.0
tp1075
sS'old'
p1076
(F0.5
F0.375
F1.0
F0.5
F0.375
F1.0
tp1077
sS'classical'
p1078
(F0.5
F0.125
F1.0
F0.5
F0.125
F1.0
tp1079
sS'pushy'
p1080
(F0.625
F0.0
F0.375
F0.625
F0.0
F0.375
tp1081
sS'back'
p1082
(F0.5
F0.25
F1.0
F0.0
F0.125
F1.0
tp1083
sS'dead'
p1084
(F0.625
F0.75
F1.0
F0.625
F0.75
F1.0
tp1085
sS'tempered'
p1086
(F0.0
F0.0
F1.0
F0.0
F0.0
F1.0
tp1087
sS'sure'
p1088
(F0.625
F0.625
F1.0
F0.625
F0.625
F1.0
tp1089
sS'proper'
p1090
(F0.75
F0.0
F1.0
F0.75
F0.0
F1.0
tp1091
sS'practical'
p1092
(F0.5
F0.0
F1.0
F0.5
F0.0
F1.0
tp1093
sS'hesitant'
p1094
(F0.0
F0.625
F0.375
F0.0
F0.625
F0.375
tp1095
sS'unlocked'
p1096
(F0.25
F0.5
F1.0
F0.0
F0.5
F0.5
tp1097
sS'phenomenal'
p1098
(F0.375
F0.0
F1.0
F0.375
F0.0
F1.0
tp1099
sS'highest'
p1100
(F0.5
F0.25
F1.0
F0.5
F0.25
F1.0
tp1101
sS'worthless'
p1102
(F0.0
F0.5
F0.5
F0.0
F0.5
F0.5
tp1103
sS'oleophobic'
p1104
(F0.125
F0.5
F0.375
F0.125
F0.5
F0.375
tp1105
sS'delightful'
p1106
(F0.75
F0.0
F0.25
F0.75
F0.0
F0.25
tp1107
sS'best'
p1108
(F1.0
F0.333
F1.0
F1.0
F0.333
F1.0
tp1109
sS'creative'
p1110
(F0.375
F0.0
F1.0
F0.375
F0.0
F1.0
tp1111
sS'snappy'
p1112
(F0.375
F0.5
F0.75
F0.375
F0.5
F0.75
tp1113
sS'pen'
p1114
(F0.0
F0.0
F1.0
I0
I0
I0
tp1115
sS'critical'
p1116
(F0.5
F0.5
F1.0
F0.5
F0.5
F1.0
tp1117
sS'blurry'
p1118
(F0.125
F0.75
F0.125
F0.125
F0.75
F0.125
tp1119
sS'welcome'
p1120
(F0.5
F0.0
F1.0
F0.5
F0.0
F0.5
tp1121
sS'run'
p1122
(F0.5
F0.5
F1.0
I0
I0
I0
tp1123
sS'slight'
p1124
(F0.5
F0.5
F1.0
F0.5
F0.375
F1.0
tp1125
sS'late'
p1126
(F0.125
F0.25
F1.0
F0.125
F0.25
F1.0
tp1127
sS'iconic'
p1128
(F0.0
F0.0
F1.0
F0.0
F0.0
F1.0
tp1129
sS'stellar'
p1130
(F0.25
F0.0
F0.875
F0.25
F0.0
F0.875
tp1131
sS'broken'
p1132
(F0.75
F0.5
F1.0
F0.125
F0.5
F1.0
tp1133
sS'u201cto'
p1134
g20
sS'become'
p1135
(F0.125
F0.0
F1.0
I0
I0
I0
tp1136
sS'super'
p1137
(F0.625
F0.375
F1.0
F0.625
F0.375
F0.875
tp1138
sS'iris'
p1139
(F0.0
F0.0
F1.0
I0
I0
I0
tp1140
sS'cautious'
p1141
(F0.75
F0.0
F0.75
F0.75
F0.0
F0.75
tp1142
sS'actual'
p1143
(F0.5
F0.5
F0.875
F0.5
F0.5
F0.875
tp1144
sS'coral'
p1145
(F0.375
F0.125
F1.0
F0.0
F0.0
F1.0
tp1146
sS'favorite'
p1147
(F0.375
F0.125
F1.0
F0.375
F0.125
F0.875
tp1148
sS'serviceable'
p1149
(F0.75
F0.0
F1.0
F0.75
F0.0
F1.0
tp1150
sS'hot'
p1151
(F0.75
F0.75
F1.0
F0.75
F0.75
F1.0
tp1152
sS'compatible'
p1153
(F0.5
F0.0
F0.625
F0.5
F0.0
F0.625
tp1154
sS'plus'
p1155
(F0.75
F0.0
F1.0
F0.75
F0.0
F1.0
tp1156
sS'customizing'
p1157
(F0.0
F0.0
F1.0
I0
I0
I0
tp1158
sS'carribean'
p1159
g16
sS'complimentary'
p1160
(F0.5
F0.0
F1.0
F0.5
F0.0
F1.0
tp1161
sS'shiny'
p1162
(F0.5
F0.0
F1.0
F0.5
F0.0
F1.0
tp1163
sS'other'
p1164
(F0.375
F0.625
F1.0
F0.375
F0.625
F1.0
tp1165
sS'software'
p1166
(F0.0
F0.0
F1.0
I0
I0
I0
tp1167
sS'own'
p1168
(F0.0
F0.0
F1.0
F0.0
F0.0
F1.0
tp1169
sS'plenty'
p1170
(F0.125
F0.375
F1.0
F0.125
F0.0
F0.875
tp1171
sS'slippery'
p1172
(F0.0
F0.75
F1.0
F0.0
F0.75
F1.0
tp1173
sS'delighted'
p1174
(F0.625
F0.75
F0.875
F0.5
F0.75
F0.25
tp1175
sS'seamless'
p1176
(F0.5
F0.625
F1.0
F0.5
F0.625
F1.0
tp1177
sS'appropriate'
p1178
(F0.125
F0.0
F1.0
F0.0
F0.0
F1.0
tp1179
sS'wrap'
p1180
(F0.0
F0.0
F1.0
I0
I0
I0
tp1181
sS'simillar'
p1182
g12
sS'pointless'
p1183
(F0.0
F0.625
F0.5
F0.0
F0.625
F0.5
tp1184
sS'impressed'
p1185
(F0.5
F0.5
F1.0
F0.5
F0.5
F0.0
tp1186
sS'additional'
p1187
(F0.0
F0.0
F1.0
F0.0
F0.0
F1.0
tp1188
sS'initial'
p1189
(F0.0
F0.0
F1.0
F0.0
F0.0
F1.0
tp1190
sS'apps'
p1191
g24
sS'fast'
p1192
(F0.5
F0.625
F1.0
F0.5
F0.625
F1.0
tp1193
sS'much'
p1194
(F0.375
F0.125
F1.0
F0.375
F0.125
F1.0
tp1195
sS'low'
p1196
(F0.0
F0.875
F1.0
F0.0
F0.875
F1.0
tp1197
sS'biggest'
p1198
(F0.5
F0.5
F1.0
F0.5
F0.5
F1.0
tp1199
sS'dependable'
p1200
(F0.5
F0.0
F0.625
F0.5
F0.0
F0.625
tp1201
sS'bubble'
p1202
(F0.0
F0.25
F1.0
I0
I0
I0
tp1203
sS'happy'
p1204
(F0.875
F0.0
F0.875
F0.875
F0.0
F0.875
tp1205
sS'lowest'
p1206
(F0.375
F0.875
F1.0
F0.375
F0.875
F1.0
tp1207
sS'complete'
p1208
(F0.75
F0.0
F1.0
F0.75
F0.0
F1.0
tp1209
sS'constantly'
p1210
(F0.125
F0.25
F1.0
F0.125
F0.25
F1.0
tp1211
sS'registered'
p1212
(F0.375
F0.0
F1.0
F0.0
F0.0
F1.0
tp1213
sS'buggy'
p1214
(F0.0
F0.625
F1.0
F0.0
F0.625
F0.625
tp1215
sS'wireless'
p1216
(F0.0
F0.0
F1.0
F0.0
F0.0
F1.0
tp1217
sS'ude02'
p1218
(I-1
I-1
I-1
I-1
I-1
I-1
tp1219
sS'u201ctele'
p1220
g45
sS'newer'
p1221
(F0.375
F0.625
F1.0
F0.375
F0.625
F1.0
tp1222
sS'ear'
p1223
(F0.75
F0.25
F1.0
I0
I0
I0
tp1224
sS'true'
p1225
(F0.5
F0.375
F1.0
F0.5
F0.375
F1.0
tp1226
sS'considerable'
p1227
(F0.0
F0.0
F1.0
F0.0
F0.0
F1.0
tp1228
sS'u.'
p1229
g16
sS'full'
p1230
(F0.375
F0.125
F1.0
F0.375
F0.125
F1.0
tp1231
sS'wish'
p1232
(F0.5
F0.5
F1.0
I0
I0
I0
tp1233
sS'receptive'
p1234
(F0.25
F0.125
F1.0
F0.25
F0.125
F1.0
tp1235
sS'official'
p1236
(F0.25
F0.0
F1.0
F0.25
F0.0
F1.0
tp1237
sS'smooth'
p1238
(F0.625
F0.375
F1.0
F0.625
F0.375
F1.0
tp1239
sS'ur'
p1240
(F0.0
F0.0
F1.0
I0
I0
I0
tp1241
sS'url'
p1242
(F0.0
F0.0
F1.0
I0
I0
I0
tp1243
sS'nicest'
p1244
(F0.875
F0.375
F0.625
F0.875
F0.375
F0.625
tp1245
sS'intrusive'
p1246
(F0.125
F0.5
F1.0
F0.125
F0.5
F1.0
tp1247
sS'similar'
p1248
(F0.5
F0.25
F0.875
F0.5
F0.25
F0.875
tp1249
sS'average'
p1250
(F0.375
F0.625
F1.0
F0.375
F0.625
F1.0
tp1251
sS'delete'
p1252
(F0.0
F0.125
F1.0
I0
I0
I0
tp1253
sS'detailed'
p1254
(F0.5
F0.0
F1.0
F0.5
F0.0
F0.5
tp1255
sS'worthwhile'
p1256
(F0.375
F0.0
F0.625
F0.375
F0.0
F0.625
tp1257
sS'certain'
p1258
(F0.625
F0.5
F1.0
F0.625
F0.5
F1.0
tp1259
sS'doesn'
p1260
g12
sS'general'
p1261
(F0.0
F0.125
F1.0
F0.0
F0.125
F1.0
tp1262
sS'single'
p1263
(F0.0
F0.75
F1.0
F0.0
F0.75
F1.0
tp1264
sS'fleeting'
p1265
(F0.125
F0.125
F1.0
F0.125
F0.0
F0.875
tp1266
sS'mediocre'
p1267
(F0.25
F0.778
F0.125
F0.25
F0.778
F0.125
tp1268
sS'annoying'
p1269
(F0.0
F0.5
F1.0
F0.0
F0.5
F0.5
tp1270
sS'physical'
p1271
(F0.5
F0.5
F1.0
F0.5
F0.5
F1.0
tp1272
sS'faithful'
p1273
(F0.625
F0.625
F1.0
F0.625
F0.625
F0.375
tp1274
sS'incredible'
p1275
(F0.0
F0.0
F1.0
F0.0
F0.0
F1.0
tp1276
sS'na'
p1277
(F0.0
F0.0
F1.0
I0
I0
I0
tp1278
sS'loyal'
p1279
(F0.5
F0.0
F0.875
F0.5
F0.0
F0.875
tp1280
sS'virtual'
p1281
(F0.5
F0.5
F0.5
F0.5
F0.5
F0.5
tp1282
sS'u2022'
p1283
g47
sS'sick'
p1284
(F0.5
F0.75
F1.0
F0.5
F0.75
F0.5
tp1285
sS'digital'
p1286
(F0.125
F0.0
F1.0
F0.125
F0.0
F1.0
tp1287
sS'trash'
p1288
(F0.25
F0.25
F1.0
I0
I0
I0
tp1289
sS'acceptable'
p1290
(F0.625
F0.0
F0.875
F0.625
F0.0
F0.875
tp1291
sS'nice'
p1292
(F0.875
F0.375
F1.0
F0.875
F0.375
F0.625
tp1293
sS'poor'
p1294
(F0.125
F0.875
F1.0
F0.125
F0.875
F1.0
tp1295
sS'slick'
p1296
(F0.625
F0.375
F1.0
F0.625
F0.375
F1.0
tp1297
sS'unbelivable'
p1298
g24
sS'separate'
p1299
(F0.0
F0.5
F1.0
F0.0
F0.5
F1.0
tp1300
sS'bettar'
p1301
g47
sS'understatement'
p1302
(F0.0
F0.125
F0.875
I0
I0
I0
tp1303
sS'update'
p1304
(F0.0
F0.0
F1.0
I0
I0
I0
tp1305
sS'nonresponsive'
p1306
g12
sS'important'
p1307
(F0.875
F0.25
F0.875
F0.875
F0.25
F0.875
tp1308
sS'utterly'
p1309
(F0.5
F0.0
F0.5
F0.5
F0.0
F0.5
tp1310
sS'unresponsive'
p1311
(F0.25
F0.75
F0.375
F0.25
F0.75
F0.375
tp1312
sS'longer'
p1313
(F0.375
F0.5
F1.0
F0.375
F0.5
F1.0
tp1314
sS'samsung'
p1315
g12
sS'cheaper'
p1316
(F0.125
F0.875
F0.75
F0.125
F0.875
F0.75
tp1317
sS'usefull'
p1318
g12
sS'daily'
p1319
(F0.5
F0.375
F1.0
F0.5
F0.375
F1.0
tp1320
sS'depth'
p1321
(F0.375
F0.25
F1.0
I0
I0
I0
tp1322
sS'u'
p1323
(F0.0
F0.0
F1.0
F0.0
F0.0
F1.0
tp1324
sS'alright'
p1325
(F0.625
F0.25
F1.0
F0.625
F0.25
F1.0
tp1326
sS'serious'
p1327
(F0.75
F0.75
F0.875
F0.75
F0.75
F0.875
tp1328
sS'intentional'
p1329
(F0.125
F0.0
F1.0
F0.125
F0.0
F1.0
tp1330
sS'original'
p1331
(F0.625
F0.5
F1.0
F0.25
F0.5
F1.0
tp1332
s.