(dp0
(S'perfect'
p1
tp2
(lp3
(I738
I3
F-0.625
S'new'
p4
I163
tp5
as(S'2'
p6
S'0'
p7
S'review'
p8
tp9
(lp10
(I1858
I0
F0.875
S'great'
p11
I0
tp12
a(I1858
I0
F0.875
g11
I0
tp13
as(S'clicking'
p14
S'clacking'
p15
tp16
(lp17
(I185
I3
I0
S'most'
p18
I0
tp19
a(I185
I4
F-0.75
S'likely'
p20
I0
tp21
as(S'price'
p22
S'review'
p23
S'rating'
p24
tp25
(lp26
(I1257
I2
I-100
S'ok.'
p27
I0
tp28
as(S'url'
p29
S'http'
p30
S'www'
p31
tp32
(lp33
(I51
I0
I0
S'url'
p34
I0
tp35
a(I104
I0
I0
S'url'
p36
I0
tp37
a(I160
I0
I0
S'url'
p38
I0
tp39
a(I212
I0
I0
S'url'
p40
I0
tp41
a(I265
I0
I0
S'url'
p42
I0
tp43
a(I320
I0
I0
S'url'
p44
I0
tp45
a(I372
I0
I0
S'url'
p46
I0
tp47
a(I427
I0
I0
S'url'
p48
I0
tp49
a(I481
I0
I0
S'url'
p50
I0
tp51
a(I538
I0
I0
S'url'
p52
I0
tp53
a(I590
I0
I0
S'url'
p54
I0
tp55
a(I645
I0
I0
S'url'
p56
I0
tp57
a(I698
I0
I0
S'url'
p58
I0
tp59
a(I754
I0
I0
S'url'
p60
I0
tp61
a(I807
I0
I0
S'url'
p62
I0
tp63
a(I862
I0
I0
S'url'
p64
I0
tp65
a(I919
I0
I0
S'url'
p66
I0
tp67
a(I975
I0
I0
S'url'
p68
I0
tp69
a(I1028
I0
I0
S'url'
p70
I0
tp71
a(I1085
I0
I0
S'url'
p72
I0
tp73
a(I1138
I0
I0
S'url'
p74
I0
tp75
a(I1194
I0
I0
S'url'
p76
I0
tp77
a(I1250
I0
I0
S'url'
p78
I0
tp79
a(I1300
I0
I0
S'url'
p80
I0
tp81
a(I1357
I0
I0
S'url'
p82
I0
tp83
a(I1411
I0
I0
S'url'
p84
I0
tp85
a(I1471
I0
I0
S'url'
p86
I0
tp87
a(I1526
I0
I0
S'url'
p88
I0
tp89
a(I1583
I0
I0
S'url'
p90
I0
tp91
a(I1640
I0
I0
S'url'
p92
I0
tp93
a(I1695
I0
I0
S'url'
p94
I0
tp95
a(I1756
I0
I0
S'url'
p96
I0
tp97
a(I1816
I0
I0
S'url'
p98
I0
tp99
a(I1875
I0
I0
S'url'
p100
I0
tp101
a(I1932
I0
I0
S'url'
p102
I0
tp103
a(I1988
I0
I0
S'url'
p104
I0
tp105
a(I2047
I0
I0
S'url'
p106
I0
tp107
a(I2102
I0
I0
S'url'
p108
I0
tp109
a(I2160
I0
I0
S'url'
p110
I0
tp111
a(I2214
I0
I0
S'url'
p112
I0
tp113
a(I2273
I0
I0
S'url'
p114
I0
tp115
a(I2331
I0
I0
S'url'
p116
I0
tp117
a(I2390
I0
I0
S'url'
p118
I0
tp119
a(I2448
I0
I0
S'url'
p120
I0
tp121
a(I2507
I0
I0
S'url'
p122
I0
tp123
a(I2560
I0
I0
S'url'
p124
I0
tp125
a(I2619
I0
I0
S'url'
p126
I0
tp127
a(I2677
I0
I0
S'url'
p128
I0
tp129
a(I2736
I0
I0
S'url'
p130
I0
tp131
a(I2792
I0
I0
S'url'
p132
I0
tp133
a(I2854
I0
I0
S'url'
p134
I0
tp135
a(I2911
I0
I0
S'url'
p136
I0
tp137
a(I2968
I0
I0
S'url'
p138
I0
tp139
a(I3027
I0
I0
S'url'
p140
I0
tp141
a(I3089
I0
I0
S'url'
p142
I0
tp143
a(I3150
I0
I0
S'url'
p144
I0
tp145
a(I3209
I0
I0
S'url'
p146
I0
tp147
a(I3270
I0
I0
S'url'
p148
I0
tp149
a(I3331
I0
I0
S'url'
p150
I0
tp151
a(I3383
I0
I0
S'url'
p152
I0
tp153
a(I51
I0
I0
g34
I0
tp154
a(I104
I0
I0
g36
I0
tp155
a(I160
I0
I0
g38
I0
tp156
a(I212
I0
I0
g40
I0
tp157
a(I265
I0
I0
g42
I0
tp158
a(I320
I0
I0
g44
I0
tp159
a(I372
I0
I0
g46
I0
tp160
a(I427
I0
I0
g48
I0
tp161
a(I481
I0
I0
g50
I0
tp162
a(I538
I0
I0
g52
I0
tp163
a(I590
I0
I0
g54
I0
tp164
a(I645
I0
I0
g56
I0
tp165
a(I698
I0
I0
g58
I0
tp166
a(I754
I0
I0
g60
I0
tp167
a(I807
I0
I0
g62
I0
tp168
a(I862
I0
I0
g64
I0
tp169
a(I919
I0
I0
g66
I0
tp170
a(I975
I0
I0
g68
I0
tp171
a(I1028
I0
I0
g70
I0
tp172
a(I1085
I0
I0
g72
I0
tp173
a(I1138
I0
I0
g74
I0
tp174
a(I1194
I0
I0
g76
I0
tp175
a(I1250
I0
I0
g78
I0
tp176
a(I1300
I0
I0
g80
I0
tp177
a(I1357
I0
I0
g82
I0
tp178
a(I1411
I0
I0
g84
I0
tp179
a(I1471
I0
I0
g86
I0
tp180
a(I1526
I0
I0
g88
I0
tp181
a(I1583
I0
I0
g90
I0
tp182
a(I1640
I0
I0
g92
I0
tp183
a(I1695
I0
I0
g94
I0
tp184
a(I1756
I0
I0
g96
I0
tp185
a(I1816
I0
I0
g98
I0
tp186
a(I1875
I0
I0
g100
I0
tp187
a(I1932
I0
I0
g102
I0
tp188
a(I1988
I0
I0
g104
I0
tp189
a(I2047
I0
I0
g106
I0
tp190
a(I2102
I0
I0
g108
I0
tp191
a(I2160
I0
I0
g110
I0
tp192
a(I2214
I0
I0
g112
I0
tp193
a(I2273
I0
I0
g114
I0
tp194
a(I2331
I0
I0
g116
I0
tp195
a(I2390
I0
I0
g118
I0
tp196
a(I2448
I0
I0
g120
I0
tp197
a(I2507
I0
I0
g122
I0
tp198
a(I2560
I0
I0
g124
I0
tp199
a(I2619
I0
I0
g126
I0
tp200
a(I2677
I0
I0
g128
I0
tp201
a(I2736
I0
I0
g130
I0
tp202
a(I2792
I0
I0
g132
I0
tp203
a(I2854
I0
I0
g134
I0
tp204
a(I2911
I0
I0
g136
I0
tp205
a(I2968
I0
I0
g138
I0
tp206
a(I3027
I0
I0
g140
I0
tp207
a(I3089
I0
I0
g142
I0
tp208
a(I3150
I0
I0
g144
I0
tp209
a(I3209
I0
I0
g146
I0
tp210
a(I3270
I0
I0
g148
I0
tp211
a(I3331
I0
I0
g150
I0
tp212
a(I3383
I0
I0
g152
I0
tp213
a(I51
I0
I0
g34
I0
tp214
a(I104
I0
I0
g36
I0
tp215
a(I160
I0
I0
g38
I0
tp216
a(I212
I0
I0
g40
I0
tp217
a(I265
I0
I0
g42
I0
tp218
a(I320
I0
I0
g44
I0
tp219
a(I372
I0
I0
g46
I0
tp220
a(I427
I0
I0
g48
I0
tp221
a(I481
I0
I0
g50
I0
tp222
a(I538
I0
I0
g52
I0
tp223
a(I590
I0
I0
g54
I0
tp224
a(I645
I0
I0
g56
I0
tp225
a(I698
I0
I0
g58
I0
tp226
a(I754
I0
I0
g60
I0
tp227
a(I807
I0
I0
g62
I0
tp228
a(I862
I0
I0
g64
I0
tp229
a(I919
I0
I0
g66
I0
tp230
a(I975
I0
I0
g68
I0
tp231
a(I1028
I0
I0
g70
I0
tp232
a(I1085
I0
I0
g72
I0
tp233
a(I1138
I0
I0
g74
I0
tp234
a(I1194
I0
I0
g76
I0
tp235
a(I1250
I0
I0
g78
I0
tp236
a(I1300
I0
I0
g80
I0
tp237
a(I1357
I0
I0
g82
I0
tp238
a(I1411
I0
I0
g84
I0
tp239
a(I1471
I0
I0
g86
I0
tp240
a(I1526
I0
I0
g88
I0
tp241
a(I1583
I0
I0
g90
I0
tp242
a(I1640
I0
I0
g92
I0
tp243
a(I1695
I0
I0
g94
I0
tp244
a(I1756
I0
I0
g96
I0
tp245
a(I1816
I0
I0
g98
I0
tp246
a(I1875
I0
I0
g100
I0
tp247
a(I1932
I0
I0
g102
I0
tp248
a(I1988
I0
I0
g104
I0
tp249
a(I2047
I0
I0
g106
I0
tp250
a(I2102
I0
I0
g108
I0
tp251
a(I2160
I0
I0
g110
I0
tp252
a(I2214
I0
I0
g112
I0
tp253
a(I2273
I0
I0
g114
I0
tp254
a(I2331
I0
I0
g116
I0
tp255
a(I2390
I0
I0
g118
I0
tp256
a(I2448
I0
I0
g120
I0
tp257
a(I2507
I0
I0
g122
I0
tp258
a(I2560
I0
I0
g124
I0
tp259
a(I2619
I0
I0
g126
I0
tp260
a(I2677
I0
I0
g128
I0
tp261
a(I2736
I0
I0
g130
I0
tp262
a(I2792
I0
I0
g132
I0
tp263
a(I2854
I0
I0
g134
I0
tp264
a(I2911
I0
I0
g136
I0
tp265
a(I2968
I0
I0
g138
I0
tp266
a(I3027
I0
I0
g140
I0
tp267
a(I3089
I0
I0
g142
I0
tp268
a(I3150
I0
I0
g144
I0
tp269
a(I3209
I0
I0
g146
I0
tp270
a(I3270
I0
I0
g148
I0
tp271
a(I3331
I0
I0
g150
I0
tp272
a(I3383
I0
I0
g152
I0
tp273
a(I51
I0
I0
g34
I210
tp274
a(I104
I0
I0
g36
I210
tp275
a(I160
I0
I0
g38
I210
tp276
a(I212
I0
I0
g40
I210
tp277
a(I265
I0
I0
g42
I210
tp278
a(I320
I0
I0
g44
I210
tp279
a(I372
I0
I0
g46
I210
tp280
a(I427
I0
I0
g48
I210
tp281
a(I481
I0
I0
g50
I210
tp282
a(I538
I0
I0
g52
I210
tp283
a(I590
I0
I0
g54
I210
tp284
a(I645
I0
I0
g56
I210
tp285
a(I698
I0
I0
g58
I210
tp286
a(I754
I0
I0
g60
I210
tp287
a(I807
I0
I0
g62
I210
tp288
a(I862
I0
I0
g64
I210
tp289
a(I919
I0
I0
g66
I210
tp290
a(I975
I0
I0
g68
I210
tp291
a(I1028
I0
I0
g70
I210
tp292
a(I1085
I0
I0
g72
I210
tp293
a(I1138
I0
I0
g74
I210
tp294
a(I1194
I0
I0
g76
I210
tp295
a(I1250
I0
I0
g78
I210
tp296
a(I1300
I0
I0
g80
I210
tp297
a(I1357
I0
I0
g82
I210
tp298
a(I1411
I0
I0
g84
I210
tp299
a(I1471
I0
I0
g86
I210
tp300
a(I1526
I0
I0
g88
I210
tp301
a(I1583
I0
I0
g90
I210
tp302
a(I1640
I0
I0
g92
I210
tp303
a(I1695
I0
I0
g94
I210
tp304
a(I1756
I0
I0
g96
I210
tp305
a(I1816
I0
I0
g98
I210
tp306
a(I1875
I0
I0
g100
I210
tp307
a(I1932
I0
I0
g102
I210
tp308
a(I1988
I0
I0
g104
I210
tp309
a(I2047
I0
I0
g106
I210
tp310
a(I2102
I0
I0
g108
I210
tp311
a(I2160
I0
I0
g110
I210
tp312
a(I2214
I0
I0
g112
I210
tp313
a(I2273
I0
I0
g114
I210
tp314
a(I2331
I0
I0
g116
I210
tp315
a(I2390
I0
I0
g118
I210
tp316
a(I2448
I0
I0
g120
I210
tp317
a(I2507
I0
I0
g122
I210
tp318
a(I2560
I0
I0
g124
I210
tp319
a(I2619
I0
I0
g126
I210
tp320
a(I2677
I0
I0
g128
I210
tp321
a(I2736
I0
I0
g130
I210
tp322
a(I2792
I0
I0
g132
I210
tp323
a(I2854
I0
I0
g134
I210
tp324
a(I2911
I0
I0
g136
I210
tp325
a(I2968
I0
I0
g138
I210
tp326
a(I3027
I0
I0
g140
I210
tp327
a(I3089
I0
I0
g142
I210
tp328
a(I3150
I0
I0
g144
I210
tp329
a(I3209
I0
I0
g146
I210
tp330
a(I3270
I0
I0
g148
I210
tp331
a(I3331
I0
I0
g150
I210
tp332
a(I3383
I0
I0
g152
I210
tp333
as(S'operating'
p334
S'system'
p335
tp336
(lp337
(I466
I2
I0
S'different'
p338
I14
tp339
a(I466
I2
F-0.25
S'constantly'
p340
I14
tp341
as(S'iphone'
p342
tp343
(lp344
(I3
I37
F1.0
S'better'
p345
I64
tp346
a(I445
I0
F0.25
S'able'
p347
I64
tp348
a(I497
I10
F1.0
S'better'
p349
I64
tp350
a(I576
I2
F0.375
S'revolutionary'
p351
I64
tp352
a(I984
I4
I0
S'longtime'
p353
I64
tp354
a(I1283
I0
I0
S'many'
p355
I64
tp356
a(I1391
I4
I0
S'more'
p357
I64
tp358
a(I1882
I0
F0.375
S'ok'
p359
I64
tp360
a(I2284
I1
F-0.5
S'long'
p361
I64
tp362
a(I3348
I1
F0.5
S'loyal'
p363
I64
tp364
as(S'quality'
p365
tp366
(lp367
(I3
I54
F1.0
S'good'
p368
I157
tp369
a(I22
I0
F0.875
S'solid'
p370
I157
tp371
a(I189
I7
F-0.5
S'call'
p372
I157
tp373
a(I445
I8
I0
S'build'
p374
I157
tp375
a(I493
I1
F0.5
S'high'
p376
I157
tp377
a(I1118
I1
F0.875
S'great'
p378
I157
tp379
a(I1278
I2
F0.875
S'awesome'
p380
I157
tp381
a(I1488
I1
F0.5
S'high'
p382
I157
tp383
a(I1964
I1
F1.0
S'excellent'
p384
I157
tp385
a(I2535
I0
F-0.5
S'pristine'
p386
I157
tp387
a(I3001
I0
I0
S'screen'
p388
I157
tp389
a(I3001
I0
F0.875
S'great'
p390
I157
tp391
a(I3002
I1
I0
S'screen'
p392
I157
tp393
a(I3002
I1
F0.875
S'great'
p394
I157
tp395
a(I3167
I43
F0.5
S'high'
p396
I157
tp397
as(S'personal'
p398
S'preference'
p399
tp400
(lp401
(I3
I19
F0.5
S'personal'
p402
I4
tp403
a(I3
I105
F0.5
S'personal'
p404
I4
tp405
a(I124
I8
F-0.625
S'other'
p406
I4
tp407
a(I124
I8
F0.5
S'personal'
p408
I4
tp409
as(S'awkward'
p410
S'position'
p411
tp412
(lp413
(I1327
I8
F-0.75
S'awkward'
p414
I1
tp415
as(S'verizon'
p416
tp417
(lp418
(I7
I4
I0
S'sure'
p419
I17
tp420
a(I22
I8
I0
S'local'
p421
I17
tp422
a(I22
I9
F0.875
S'great'
p423
I17
tp424
a(I22
I12
I0
S'local'
p425
I17
tp426
a(I22
I13
I0
S'standard'
p427
I17
tp428
a(I115
I0
F-0.5
S'unlocked'
p429
I17
tp430
a(I115
I3
F0.5
S'welcome'
p431
I17
tp432
a(I124
I2
F-0.5
S'ignorant'
p433
I17
tp434
a(I244
I1
I-100
S't.'
p435
I17
tp436
a(I244
I1
F0.5
S'compatible'
p437
I17
tp438
a(I434
I5
I0
S's'
p439
I17
tp440
a(I568
I1
I0
S'current'
p441
I17
tp442
a(I884
I1
I0
S'unblocked'
p443
I17
tp444
a(I1145
I1
F-0.625
S'useless'
p445
I17
tp446
a(I1231
I9
F-0.875
S'worried'
p447
I17
tp448
a(I1675
I0
F-0.75
S'stupid'
p449
I17
tp450
a(I1675
I1
F-0.75
S'stupid'
p451
I17
tp452
a(I1675
I2
I0
S'prepaid'
p453
I17
tp454
a(I1968
I0
I0
S'many'
p455
I17
tp456
a(I2053
I1
F0.875
S'great'
p457
I17
tp458
a(I2054
I1
F0.875
S'great'
p459
I17
tp460
a(I2874
I0
F-0.75
S'free'
p461
I17
tp462
a(I3368
I0
F-0.25
S'previous'
p463
I17
tp464
as(S'case'
p465
tp466
(lp467
(I3
I140
I0
S'big'
p468
I185
tp469
a(I3
I140
I0
S'durable'
p470
I185
tp471
a(I26
I37
F1.0
S'good'
p472
I185
tp473
a(I111
I7
F0.625
S'first'
p474
I185
tp475
a(I111
I9
F0.625
S'fine'
p476
I185
tp477
a(I111
I15
F-0.5
S'heavier'
p478
I185
tp479
a(I493
I4
F1.0
S'good'
p480
I185
tp481
a(I559
I3
I0
S'clear'
p482
I185
tp483
a(I559
I7
F-0.625
S'other'
p484
I185
tp485
a(I908
I3
F0.5
S'complimentary'
p486
I185
tp487
a(I992
I4
F1.0
S'good'
p488
I185
tp489
a(I1380
I8
I0
S'more'
p490
I185
tp491
a(I2496
I33
F-0.75
S'impossible'
p492
I185
tp493
a(I3185
I8
F0.5
S'compatible'
p494
I185
tp495
as(S'review'
p496
S'text'
p497
S'works'
p498
tp499
(lp500
(I338
I0
F0.875
S'great'
p501
I0
tp502
a(I556
I0
F0.875
S'great'
p503
I0
tp504
a(I904
I0
F0.875
S'great'
p505
I0
tp506
a(I2379
I0
F0.875
S'great'
p507
I0
tp508
a(I2777
I0
F0.875
S'great'
p509
I0
tp510
a(I338
I0
F0.875
g501
I186
tp511
a(I556
I0
F0.875
g503
I186
tp512
a(I904
I0
F0.875
g505
I186
tp513
a(I2379
I0
F0.875
g507
I186
tp514
a(I2777
I0
F0.875
g509
I186
tp515
as(S'text'
p516
S'love'
p517
S'review'
p518
tp519
(lp520
(I656
I0
F-0.125
S'cant'
p521
I0
tp522
a(I722
I0
F1.0
S'best'
p523
I0
tp524
a(I722
I0
F-0.5
S'heavy'
p525
I0
tp526
a(I722
I0
I0
S'big'
p527
I0
tp528
a(I1512
I0
I0
S'text'
p529
I0
tp530
a(I1619
I0
I0
S'text'
p531
I0
tp532
a(I1885
I1
F-0.875
S'angry'
p533
I0
tp534
a(I656
I0
F-0.125
g521
I0
tp535
a(I722
I0
F1.0
g523
I0
tp536
a(I722
I0
F-0.5
g525
I0
tp537
a(I722
I0
I0
g527
I0
tp538
a(I1512
I0
I0
g529
I0
tp539
a(I1619
I0
I0
g531
I0
tp540
a(I1885
I1
F-0.875
g533
I0
tp541
a(I656
I0
F-0.125
g521
I0
tp542
a(I722
I0
F1.0
g523
I0
tp543
a(I722
I0
F-0.5
g525
I0
tp544
a(I722
I0
I0
g527
I0
tp545
a(I1885
I1
F-0.875
g533
I0
tp546
a(I7
I0
I0
S'skeptical'
p547
I0
tp548
a(I40
I0
F1.0
S'good'
p549
I0
tp550
a(I189
I3
F-0.125
S'overall'
p551
I0
tp552
a(I197
I0
F1.0
S'good'
p553
I0
tp554
a(I240
I0
F0.625
S'first'
p555
I0
tp556
a(I493
I0
I0
S't'
p557
I0
tp558
a(I526
I0
F-0.125
S'such'
p559
I0
tp560
a(I572
I0
I0
S'text'
p561
I0
tp562
a(I572
I0
F0.875
S'happy'
p563
I0
tp564
a(I602
I0
F0.875
S'happy'
p565
I0
tp566
a(I618
I0
F0.875
S'happy'
p567
I0
tp568
a(I656
I0
F-0.125
g521
I0
tp569
a(I667
I1
I0
S'sure'
p570
I0
tp571
a(I939
I0
I0
S'text'
p572
I0
tp573
a(I955
I0
F1.0
S'excellent'
p574
I0
tp575
a(I1047
I0
F0.875
S'happy'
p576
I0
tp577
a(I1219
I0
I0
S'text'
p578
I0
tp579
a(I1289
I1
I0
S'text'
p580
I0
tp581
a(I1418
I0
I0
S'text'
p582
I0
tp583
a(I1442
I0
F1.0
S'good'
p584
I0
tp585
a(I1499
I0
I0
S'text'
p586
I0
tp587
a(I1512
I0
I0
g529
I0
tp588
a(I1538
I0
I0
S'text'
p589
I0
tp590
a(I1546
I1
I0
S'paint'
p591
I0
tp592
a(I1619
I0
I0
g531
I0
tp593
a(I1628
I0
I0
S'text'
p594
I0
tp595
a(I1651
I0
F1.0
S'good'
p596
I0
tp597
a(I1672
I0
F0.75
S'glad'
p598
I0
tp599
a(I1725
I0
F-0.875
S'wrong'
p600
I0
tp601
a(I1787
I0
I0
S'text'
p602
I0
tp603
a(I1837
I0
F1.0
S'better'
p604
I0
tp605
a(I1858
I0
F0.875
g11
I0
tp606
a(I1885
I1
F-0.875
g533
I0
tp607
a(I1920
I0
F1.0
S'good'
p608
I0
tp609
a(I1943
I0
F0.875
S'great'
p610
I0
tp611
a(I2021
I0
F0.875
S'happy'
p612
I0
tp613
a(I2068
I0
I0
S'text'
p614
I0
tp615
a(I2135
I0
I0
S'text'
p616
I0
tp617
a(I2139
I0
I0
S'text'
p618
I0
tp619
a(I2167
I0
F1.0
S'excellent'
p620
I0
tp621
a(I2187
I0
I0
S'text'
p622
I0
tp623
a(I2233
I0
I0
S'text'
p624
I0
tp625
a(I2238
I0
I0
S'text'
p626
I0
tp627
a(I2280
I0
I0
S'text'
p628
I0
tp629
a(I2338
I0
F-0.625
S'new'
p630
I0
tp631
a(I2407
I0
I0
S'text'
p632
I0
tp633
a(I2455
I0
F1.0
S'best'
p634
I0
tp635
a(I2518
I0
I0
S'text'
p636
I0
tp637
a(I2518
I0
F1.0
S'good'
p638
I0
tp639
a(I2518
I0
F0.375
S'classy'
p640
I0
tp641
a(I2589
I0
F1.0
S'good'
p642
I0
tp643
a(I2594
I0
F1.0
S'good'
p644
I0
tp645
a(I2630
I0
I0
S'text'
p646
I0
tp647
a(I2635
I0
I0
S'text'
p648
I0
tp649
a(I2647
I1
I0
S'advertised'
p650
I0
tp651
a(I2878
I0
I0
S'text'
p652
I0
tp653
a(I2900
I0
F0.75
S'honest'
p654
I0
tp655
a(I2938
I0
F1.0
S'good'
p656
I0
tp657
a(I2998
I0
F0.875
S'happy'
p658
I0
tp659
a(I3015
I0
I0
S'text'
p660
I0
tp661
a(I3044
I0
F-0.75
S'unable'
p662
I0
tp663
a(I3049
I0
F1.0
S'good'
p664
I0
tp665
a(I3054
I0
I0
S'text'
p666
I0
tp667
a(I3058
I0
I0
S'text'
p668
I0
tp669
a(I3068
I0
F-0.125
S'such'
p670
I0
tp671
a(I3134
I0
I0
S'text'
p672
I0
tp673
a(I3134
I0
F1.0
S'good'
p674
I0
tp675
a(I3157
I0
I0
S'text'
p676
I0
tp677
a(I3181
I0
F0.875
S'happy'
p678
I0
tp679
a(I3248
I0
I0
S'text'
p680
I0
tp681
a(I3248
I0
F1.0
S'good'
p682
I0
tp683
a(I3248
I0
F1.0
S'good'
p684
I0
tp685
a(I3253
I0
I0
S'text'
p686
I0
tp687
a(I721
I0
F1.0
S'best'
p688
I0
tp689
a(I722
I0
F1.0
g523
I0
tp690
a(I722
I0
F-0.5
g525
I0
tp691
a(I722
I0
I0
g527
I0
tp692
a(I1512
I0
I0
g529
I0
tp693
a(I1619
I0
I0
g531
I0
tp694
a(I721
I0
F1.0
g688
I363
tp695
a(I722
I0
F1.0
g523
I363
tp696
a(I722
I0
F-0.5
g525
I363
tp697
a(I722
I0
I0
g527
I363
tp698
as(S'issue'
p699
tp700
(lp701
(I3
I118
I-100
S'samsung'
p702
I200
tp703
a(I30
I0
I0
S'hardware'
p704
I200
tp705
a(I30
I1
I0
S'hardware'
p706
I200
tp707
a(I201
I13
I0
S'hardware'
p708
I200
tp709
a(I236
I11
F0.625
S'first'
p710
I200
tp711
a(I236
I14
F0.5
S'second'
p712
I200
tp713
a(I236
I14
F-0.5
S'less'
p714
I200
tp715
a(I236
I17
I0
S'third'
p716
I200
tp717
a(I249
I6
F-0.625
S'other'
p718
I200
tp719
a(I434
I4
I0
S'online'
p720
I200
tp721
a(I434
I4
F-0.75
S'minor'
p722
I200
tp723
a(I522
I5
I0
S'only'
p724
I200
tp725
a(I552
I6
I0
S'only'
p726
I200
tp727
a(I552
I6
I-100
S'ive'
p728
I200
tp729
a(I1074
I0
I0
S'screen'
p730
I200
tp731
a(I1219
I3
I0
S'individual'
p732
I200
tp733
as(S'learning'
p734
S'curve'
p735
tp736
(lp737
(I671
I1
F0.5
S'learning'
p738
I6
tp739
as(S'store'
p740
tp741
(lp742
(I3
I170
I0
S'local'
p743
I74
tp744
a(I434
I1
I0
S'local'
p745
I74
tp746
a(I655
I0
F0.125
S'mobile'
p747
I74
tp748
a(I656
I2
F-0.5
S'less'
p749
I74
tp750
a(I656
I2
F0.125
S'mobile'
p751
I74
tp752
a(I1231
I0
I0
S'local'
p753
I74
tp754
a(I1231
I3
I0
S'local'
p755
I74
tp756
a(I3311
I0
F-0.5
S'corporate'
p757
I74
tp758
as(S'software'
p759
tp760
(lp761
(I22
I2
F-0.25
S'latest'
p762
I102
tp763
a(I22
I6
F0.625
S'major'
p764
I102
tp765
a(I115
I10
F0.25
S'streamlined'
p766
I102
tp767
a(I193
I12
F0.875
S'nice'
p768
I102
tp769
a(I193
I20
F-0.625
S'other'
p770
I102
tp771
a(I326
I0
I-100
S'laggy'
p772
I102
tp773
a(I327
I3
F0.375
S'jittery'
p774
I102
tp775
a(I466
I1
F-0.625
S'horrible'
p776
I102
tp777
a(I1452
I1
I0
S'few'
p778
I102
tp779
a(I2220
I6
F-0.625
S'horrendous'
p780
I102
tp781
a(I2220
I19
F0.25
S'special'
p782
I102
tp783
a(I2220
I27
F0.25
S'able'
p784
I102
tp785
as(S'edge'
p786
tp787
(lp788
(I137
I13
F0.75
S'glad'
p789
I132
tp790
a(I181
I6
F0.625
S'noticeable'
p791
I132
tp792
a(I1211
I1
I0
S'warped'
p793
I132
tp794
a(I3167
I3
F-0.625
S'reluctant'
p795
I132
tp796
a(I3167
I3
F0.625
S'first'
p797
I132
tp798
as(S'review'
p799
S'header'
p800
S'good'
p801
tp802
(lp803
(I1967
I0
F1.0
S'good'
p804
I0
tp805
a(I2300
I0
F1.0
S'good'
p806
I0
tp807
a(I3188
I0
F1.0
S'good'
p808
I0
tp809
a(I1967
I0
F1.0
g804
I0
tp810
a(I2300
I0
F1.0
g806
I0
tp811
a(I3188
I0
F1.0
g808
I0
tp812
as(S'stars'
p813
tp814
(lp815
(I3194
I10
F0.125
S'appropriate'
p816
I53
tp817
as(S'review'
p818
S'text'
p819
S'great'
p820
tp821
(lp822
(I189
I3
F-0.125
g551
I0
tp823
a(I522
I0
F0.875
S'great'
p824
I0
tp825
a(I526
I0
F-0.125
g559
I0
tp826
a(I1787
I0
I0
g602
I0
tp827
a(I1858
I0
F0.875
g11
I0
tp828
a(I1943
I0
F0.875
g610
I0
tp829
a(I2135
I0
I0
g616
I0
tp830
a(I2139
I0
I0
g618
I0
tp831
a(I2253
I0
F-0.125
S'overall'
p832
I0
tp833
a(I2630
I0
I0
g646
I0
tp834
a(I2998
I0
F0.875
g658
I0
tp835
a(I3068
I0
F-0.125
g670
I0
tp836
a(I189
I3
F-0.125
g551
I0
tp837
a(I522
I0
F0.875
g824
I0
tp838
a(I526
I0
F-0.125
g559
I0
tp839
a(I1787
I0
I0
g602
I0
tp840
a(I1858
I0
F0.875
g11
I0
tp841
a(I1943
I0
F0.875
g610
I0
tp842
a(I2135
I0
I0
g616
I0
tp843
a(I2139
I0
I0
g618
I0
tp844
a(I2253
I0
F-0.125
g832
I0
tp845
a(I2630
I0
I0
g646
I0
tp846
a(I2998
I0
F0.875
g658
I0
tp847
a(I3068
I0
F-0.125
g670
I0
tp848
a(I522
I0
F0.875
g824
I0
tp849
a(I526
I0
F-0.125
g559
I0
tp850
a(I1943
I0
F0.875
g610
I0
tp851
a(I2253
I0
F-0.125
g832
I0
tp852
a(I2998
I0
F0.875
g658
I0
tp853
a(I3068
I0
F-0.125
g670
I0
tp854
a(I189
I3
F-0.125
g551
I0
tp855
a(I522
I0
F0.875
g824
I0
tp856
a(I1787
I0
I0
g602
I0
tp857
a(I1858
I0
F0.875
g11
I0
tp858
a(I2135
I0
I0
g616
I0
tp859
a(I2139
I0
I0
g618
I0
tp860
a(I2253
I0
F-0.125
g832
I0
tp861
a(I2630
I0
I0
g646
I0
tp862
a(I522
I0
F0.875
g824
I500
tp863
a(I2253
I0
F-0.125
g832
I500
tp864
as(S'galaxy'
p865
S's8'
p866
tp867
(lp868
(I77
I6
F-0.625
S'new'
p869
I11
tp870
a(I128
I0
F0.25
S'spectacular'
p871
I11
tp872
a(I1994
I2
I-100
S'mega'
p873
I11
tp874
a(I2229
I0
F0.75
S'wonderful'
p875
I11
tp876
a(I3167
I2
F0.375
S'significant'
p877
I11
tp878
a(I3167
I2
F-0.625
S'other'
p879
I11
tp880
a(I77
I6
F-0.625
g869
I51
tp881
a(I197
I2
F0.5
S'old'
p882
I51
tp883
a(I342
I4
F1.0
S'best'
p884
I51
tp885
a(I392
I15
F-0.125
S'next'
p886
I51
tp887
a(I449
I3
F0.5
S'old'
p888
I51
tp889
a(I874
I0
F0.875
S'right'
p890
I51
tp891
a(I1162
I0
F0.625
S'convenient'
p892
I51
tp893
a(I1227
I1
F-0.25
S'previous'
p894
I51
tp895
a(I2496
I8
I0
S'prior'
p896
I51
tp897
a(I2496
I11
F-0.25
S'earlier'
p898
I51
tp899
a(I3120
I7
F-0.125
S'next'
p900
I51
tp901
a(I3167
I2
F0.375
g877
I51
tp902
a(I3167
I2
F-0.625
g879
I51
tp903
a(I3342
I3
F-0.25
S'previous'
p904
I51
tp905
as(S'google'
p906
S'assistant'
p907
tp908
(lp909
(I441
I6
F1.0
S'better'
p910
I4
tp911
a(I441
I6
I0
S's'
p912
I4
tp913
a(I441
I6
F0.5
S'personal'
p914
I4
tp915
a(I935
I1
F0.5
S'personal'
p916
I4
tp917
as(S'fast'
p918
tp919
(lp920
(I40
I8
F0.625
S'super'
p921
I241
tp922
a(I57
I20
F0.25
S'able'
p923
I241
tp924
a(I111
I3
F-0.125
S'overall'
p925
I241
tp926
a(I111
I3
F0.625
S'slick'
p927
I241
tp928
a(I111
I3
F0.5
S'high'
p929
I241
tp930
a(I178
I2
F0.875
S'amazing'
p931
I241
tp932
a(I178
I2
F0.625
S'super'
p933
I241
tp934
a(I497
I11
F0.625
S'super'
p935
I241
tp936
a(I597
I2
F0.625
S'super'
p937
I241
tp938
a(I1385
I0
F1.0
S'good'
p939
I241
tp940
a(I2527
I0
F0.625
S'super'
p941
I241
tp942
a(I2527
I0
F0.75
S'easy'
p943
I241
tp944
a(I2804
I0
F0.875
S'great'
p945
I241
tp946
as(S'metro'
p947
S'pcs'
p948
tp949
(lp950
(I552
I2
I-100
S'yo'
p951
I7
tp952
a(I552
I2
I0
S'metro'
p953
I7
tp954
a(I602
I5
I0
S'metro'
p955
I7
tp956
a(I884
I1
I0
S'metro'
p957
I7
tp958
as(S'service'
p959
tp960
(lp961
(I133
I1
F-1.0
S'worst'
p962
I100
tp963
a(I175
I6
F-0.625
S'new'
p964
I100
tp965
a(I201
I15
F0.875
S'great'
p966
I100
tp967
a(I201
I15
F0.875
S'great'
p968
I100
tp969
a(I349
I4
F0.375
S'full'
p970
I100
tp971
a(I349
I5
F-0.375
S'same'
p972
I100
tp973
a(I552
I1
I0
S'metro'
p974
I100
tp975
a(I552
I1
F0.75
S'receive'
p976
I100
tp977
a(I1170
I1
F-0.75
S'absolute'
p978
I100
tp979
a(I1170
I1
F0.75
S'perfect'
p980
I100
tp981
a(I1323
I1
F0.875
S'great'
p982
I100
tp983
a(I1323
I1
I0
S'different'
p984
I100
tp985
a(I1323
I2
F0.875
S'great'
p986
I100
tp987
a(I1323
I2
I0
S'different'
p988
I100
tp989
a(I2187
I0
F0.5
S'rapid'
p990
I100
tp991
a(I2689
I2
F0.25
S'able'
p992
I100
tp993
a(I3224
I2
F-0.625
S'new'
p994
I100
tp995
as(S'repaired'
p996
S'rebuilt'
p997
tp998
(lp999
(I185
I9
F0.25
S'repaired'
p1000
I0
tp1001
as(S'need'
p1002
tp1003
(lp1004
(I3
I139
F-0.125
S'overall'
p1005
I214
tp1006
a(I3
I139
F0.875
S'amazing'
p1007
I214
tp1008
a(I119
I2
F-0.625
S'desperate'
p1009
I214
tp1010
a(I137
I6
I0
S't'
p1011
I214
tp1012
a(I383
I8
F0.25
S'basic'
p1013
I214
tp1014
as(S'great'
p1015
S'price'
p1016
S'review'
p1017
tp1018
(lp1019
(I272
I0
F0.875
S'great'
p1020
I0
tp1021
a(I395
I0
F0.875
S'great'
p1022
I0
tp1023
a(I1144
I0
I0
S'quick'
p1024
I0
tp1025
a(I1423
I0
F1.0
S'best'
p1026
I0
tp1027
a(I1423
I0
F0.375
S'available'
p1028
I0
tp1029
a(I1482
I0
F0.875
S'great'
p1030
I0
tp1031
a(I1483
I0
F0.875
S'great'
p1032
I0
tp1033
a(I1684
I0
F1.0
S'excellent'
p1034
I0
tp1035
a(I1792
I0
F0.875
S'great'
p1036
I0
tp1037
a(I2086
I0
F0.875
S'great'
p1038
I0
tp1039
a(I2347
I0
F0.875
S'great'
p1040
I0
tp1041
a(I272
I0
F0.875
g1020
I16
tp1042
a(I395
I0
F0.875
g1022
I16
tp1043
a(I661
I6
F0.875
S'great'
p1044
I16
tp1045
a(I1144
I0
I0
g1024
I16
tp1046
a(I1423
I0
F1.0
g1026
I16
tp1047
a(I1423
I0
F0.375
g1028
I16
tp1048
a(I1482
I0
F0.875
g1030
I16
tp1049
a(I1483
I0
F0.875
g1032
I16
tp1050
a(I1684
I0
F1.0
g1034
I16
tp1051
a(I1792
I0
F0.875
g1036
I16
tp1052
a(I1827
I1
F0.875
S'great'
p1053
I16
tp1054
a(I1828
I1
F0.875
S'great'
p1055
I16
tp1056
a(I2086
I0
F0.875
g1038
I16
tp1057
a(I2347
I0
F0.875
g1040
I16
tp1058
as(S'recommend'
p1059
tp1060
(lp1061
(I228
I10
I0
S't'
p1062
I99
tp1063
as(S'things'
p1064
tp1065
(lp1066
(I40
I1
I0
S'few'
p1067
I107
tp1068
a(I93
I4
F-0.75
S'little'
p1069
I107
tp1070
a(I119
I1
F-0.75
S'difficult'
p1071
I107
tp1072
a(I124
I8
I0
S'many'
p1073
I107
tp1074
a(I124
I8
F-0.375
S'same'
p1075
I107
tp1076
a(I137
I30
I0
S'many'
p1077
I107
tp1078
a(I231
I0
F-0.875
S'terrible'
p1079
I107
tp1080
a(I232
I0
F-0.875
S'terrible'
p1081
I107
tp1082
a(I277
I0
I0
S'few'
p1083
I107
tp1084
a(I392
I2
F0.5
S'true'
p1085
I107
tp1086
a(I392
I2
I0
S'more'
p1087
I107
tp1088
a(I437
I4
F0.625
S'certain'
p1089
I107
tp1090
a(I705
I2
I0
S'many'
p1091
I107
tp1092
a(I705
I2
I0
S'more'
p1093
I107
tp1094
a(I781
I1
I0
S'many'
p1095
I107
tp1096
a(I786
I9
F1.0
S'best'
p1097
I107
tp1098
a(I889
I0
F-0.625
S'new'
p1099
I107
tp1100
a(I889
I1
I0
S'many'
p1101
I107
tp1102
a(I1885
I1
F-0.625
S'other'
p1103
I107
tp1104
a(I2900
I20
F-0.375
S'same'
p1105
I107
tp1106
a(I2989
I1
F0.125
S'random'
p1107
I107
tp1108
a(I3002
I3
I0
S'few'
p1109
I107
tp1110
as(S'features'
p1111
tp1112
(lp1113
(I14
I47
F-0.625
S'other'
p1114
I192
tp1115
a(I236
I2
I0
S'many'
p1116
I192
tp1117
a(I290
I7
I0
S'main'
p1118
I192
tp1119
a(I392
I9
I0
S'unnecessary'
p1120
I192
tp1121
a(I458
I2
F-0.625
S'willing'
p1122
I192
tp1123
a(I458
I2
I0
S'few'
p1124
I192
tp1125
a(I458
I2
F-0.125
S'such'
p1126
I192
tp1127
a(I773
I0
F-0.625
S'new'
p1128
I192
tp1129
a(I773
I0
F0.875
S'great'
p1130
I192
tp1131
a(I831
I2
F0.875
S'great'
p1132
I192
tp1133
a(I950
I2
I0
S'predictable'
p1134
I192
tp1135
a(I950
I2
I0
S'dictionary'
p1136
I192
tp1137
a(I950
I2
F0.375
S'available'
p1138
I192
tp1139
a(I1380
I5
I0
S'many'
p1140
I192
tp1141
a(I1380
I5
F0.25
S'helpful'
p1142
I192
tp1143
a(I1380
I5
I0
S'useful'
p1144
I192
tp1145
a(I1603
I0
I0
S'many'
p1146
I192
tp1147
a(I1890
I6
F0.75
S'wonderful'
p1148
I192
tp1149
a(I1999
I1
I0
S'many'
p1150
I192
tp1151
a(I2144
I0
F-0.625
S'new'
p1152
I192
tp1153
a(I2175
I1
F-0.625
S'other'
p1154
I192
tp1155
a(I3185
I4
I0
S'many'
p1156
I192
tp1157
a(I3220
I2
F0.625
S'alright'
p1158
I192
tp1159
as(S'review'
p1160
S'text'
p1161
S'a'
p1162
tp1163
(lp1164
(I7
I0
I0
g547
I0
tp1165
a(I40
I0
F1.0
g549
I0
tp1166
a(I189
I3
F-0.125
g551
I0
tp1167
a(I197
I0
F1.0
g553
I0
tp1168
a(I240
I0
F0.625
g555
I0
tp1169
a(I493
I0
I0
g557
I0
tp1170
a(I526
I0
F-0.125
g559
I0
tp1171
a(I572
I0
I0
g561
I0
tp1172
a(I572
I0
F0.875
g563
I0
tp1173
a(I602
I0
F0.875
g565
I0
tp1174
a(I618
I0
F0.875
g567
I0
tp1175
a(I656
I0
F-0.125
g521
I0
tp1176
a(I667
I1
I0
g570
I0
tp1177
a(I939
I0
I0
g572
I0
tp1178
a(I955
I0
F1.0
g574
I0
tp1179
a(I1047
I0
F0.875
g576
I0
tp1180
a(I1219
I0
I0
g578
I0
tp1181
a(I1512
I0
I0
g529
I0
tp1182
a(I1538
I0
I0
g589
I0
tp1183
a(I1546
I1
I0
g591
I0
tp1184
a(I1619
I0
I0
g531
I0
tp1185
a(I1628
I0
I0
g594
I0
tp1186
a(I1651
I0
F1.0
g596
I0
tp1187
a(I1672
I0
F0.75
g598
I0
tp1188
a(I1725
I0
F-0.875
g600
I0
tp1189
a(I1787
I0
I0
g602
I0
tp1190
a(I1837
I0
F1.0
g604
I0
tp1191
a(I1858
I0
F0.875
g11
I0
tp1192
a(I1885
I1
F-0.875
g533
I0
tp1193
a(I1920
I0
F1.0
g608
I0
tp1194
a(I1943
I0
F0.875
g610
I0
tp1195
a(I2021
I0
F0.875
g612
I0
tp1196
a(I2135
I0
I0
g616
I0
tp1197
a(I2139
I0
I0
g618
I0
tp1198
a(I2167
I0
F1.0
g620
I0
tp1199
a(I2187
I0
I0
g622
I0
tp1200
a(I2233
I0
I0
g624
I0
tp1201
a(I2238
I0
I0
g626
I0
tp1202
a(I2338
I0
F-0.625
g630
I0
tp1203
a(I2407
I0
I0
g632
I0
tp1204
a(I2518
I0
I0
g636
I0
tp1205
a(I2518
I0
F1.0
g638
I0
tp1206
a(I2518
I0
F0.375
g640
I0
tp1207
a(I2589
I0
F1.0
g642
I0
tp1208
a(I2630
I0
I0
g646
I0
tp1209
a(I2635
I0
I0
g648
I0
tp1210
a(I2647
I1
I0
g650
I0
tp1211
a(I2878
I0
I0
g652
I0
tp1212
a(I2900
I0
F0.75
g654
I0
tp1213
a(I2998
I0
F0.875
g658
I0
tp1214
a(I3044
I0
F-0.75
g662
I0
tp1215
a(I3049
I0
F1.0
g664
I0
tp1216
a(I3054
I0
I0
g666
I0
tp1217
a(I3058
I0
I0
g668
I0
tp1218
a(I3068
I0
F-0.125
g670
I0
tp1219
a(I3181
I0
F0.875
g678
I0
tp1220
a(I3253
I0
I0
g686
I0
tp1221
as(S'review'
p1222
S'header'
p1223
S'one'
p1224
tp1225
(lp1226
(I239
I0
F0.875
S'happy'
p1227
I0
tp1228
a(I304
I0
F0.875
S'great'
p1229
I0
tp1230
a(I655
I0
F-0.5
S'less'
p1231
I0
tp1232
a(I667
I0
I0
S'sure'
p1233
I0
tp1234
a(I896
I0
F0.875
S'great'
p1235
I0
tp1236
a(I1042
I0
F-0.625
S'other'
p1237
I0
tp1238
a(I2228
I0
F0.75
S'wonderful'
p1239
I0
tp1240
a(I3188
I0
F1.0
g808
I0
tp1241
a(I3367
I0
F-0.125
S'general'
p1242
I0
tp1243
as(S'water'
p1244
S'resistant'
p1245
tp1246
(lp1247
(I786
I8
F-0.625
S'resistant'
p1248
I11
tp1249
a(I1800
I0
F-0.625
S'resistant'
p1250
I11
tp1251
a(I2781
I0
F-0.625
S'resistant'
p1252
I11
tp1253
as(S'black'
p1254
S'friday'
p1255
tp1256
(lp1257
(I1043
I0
F-0.75
S'black'
p1258
I2
tp1259
a(I1792
I0
F0.25
S'able'
p1260
I2
tp1261
as(S'star'
p1262
S'review'
p1263
S'text'
p1264
tp1265
(lp1266
(I1885
I1
F-0.875
g533
I0
tp1267
as(S'thing'
p1268
tp1269
(lp1270
(I3
I131
F-0.375
S'same'
p1271
I683
tp1272
a(I86
I9
F0.875
S'right'
p1273
I683
tp1274
a(I124
I6
I0
S'strange'
p1275
I683
tp1276
a(I175
I9
I0
S'only'
p1277
I683
tp1278
a(I185
I10
F1.0
S'good'
p1279
I683
tp1280
a(I201
I12
I0
S'biggest'
p1281
I683
tp1282
a(I232
I4
F-0.875
S'terrible'
p1283
I683
tp1284
a(I301
I7
I0
S't'
p1285
I683
tp1286
a(I349
I8
F0.75
S'easy'
p1287
I683
tp1288
a(I383
I9
F1.0
S'best'
p1289
I683
tp1290
a(I437
I4
I0
S'only'
p1291
I683
tp1292
a(I445
I8
F0.875
S'amazing'
p1293
I683
tp1294
a(I579
I0
F0.875
S'amazing'
p1295
I683
tp1296
a(I579
I3
F0.875
S'amazing'
p1297
I683
tp1298
a(I579
I9
I0
S'only'
p1299
I683
tp1300
a(I769
I16
F1.0
S'good'
p1301
I683
tp1302
a(I773
I1
I0
S'only'
p1303
I683
tp1304
a(I773
I1
I0
S't'
p1305
I683
tp1306
a(I814
I4
I0
S'biggest'
p1307
I683
tp1308
a(I935
I5
F-0.75
S'stupid'
p1309
I683
tp1310
a(I984
I2
F0.625
S'first'
p1311
I683
tp1312
a(I1016
I1
I0
S't'
p1313
I683
tp1314
a(I1110
I2
F-0.125
S'next'
p1315
I683
tp1316
a(I1110
I2
F1.0
S'best'
p1317
I683
tp1318
a(I1150
I3
I0
S'only'
p1319
I683
tp1320
a(I1211
I1
I0
S'only'
p1321
I683
tp1322
a(I1744
I3
I0
S'only'
p1323
I683
tp1324
a(I1885
I1
F-0.625
S'other'
p1325
I683
tp1326
a(I1951
I1
F0.875
S'happy'
p1327
I683
tp1328
a(I1951
I1
F1.0
S'best'
p1329
I683
tp1330
a(I2195
I2
I0
S'only'
p1331
I683
tp1332
a(I2220
I6
F0.75
S'whole'
p1333
I683
tp1334
a(I2220
I25
I0
S'freaking'
p1335
I683
tp1336
a(I3220
I4
F-0.5
S'damn'
p1337
I683
tp1338
a(I3352
I1
F-0.75
S'little'
p1339
I683
tp1340
as(S'beautiful'
p1341
tp1342
(lp1343
(I86
I2
F-0.5
S'snappy'
p1344
I105
tp1345
a(I222
I0
F0.5
S'powerful'
p1346
I105
tp1347
as(S'review'
p1348
S'header'
p1349
S'works'
p1350
tp1351
(lp1352
(I39
I0
F0.875
S'great'
p1353
I0
tp1354
a(I448
I0
F0.875
S'great'
p1355
I0
tp1356
a(I929
I0
F0.625
S'fine'
p1357
I0
tp1358
a(I1654
I0
F0.875
S'great'
p1359
I0
tp1360
a(I1654
I0
F-0.625
S'new'
p1361
I0
tp1362
a(I1893
I0
F0.25
S'able'
p1363
I0
tp1364
a(I39
I0
F0.875
g1353
I0
tp1365
a(I448
I0
F0.875
g1355
I0
tp1366
a(I929
I0
F0.625
g1357
I0
tp1367
a(I1654
I0
F0.875
g1359
I0
tp1368
a(I1654
I0
F-0.625
g1361
I0
tp1369
a(I1893
I0
F0.25
g1363
I0
tp1370
as(S'work'
p1371
tp1372
(lp1373
(I842
I2
I0
S't'
p1374
I611
tp1375
a(I1016
I2
I0
S'wont'
p1376
I611
tp1377
a(I1231
I3
I0
S't'
p1378
I611
tp1379
a(I1885
I1
I0
S't'
p1380
I611
tp1381
a(I3194
I3
I0
S't'
p1382
I611
tp1383
a(I3194
I5
I0
S't'
p1384
I611
tp1385
as(g7
S'review'
p1386
S'header'
p1387
tp1388
(lp1389
(I655
I0
F-0.5
g1231
I0
tp1390
as(S'problems'
p1391
tp1392
(lp1393
(I22
I3
I0
S'many'
p1394
I83
tp1395
a(I166
I1
I0
S'serious'
p1396
I83
tp1397
a(I185
I8
F-0.25
S'potential'
p1398
I83
tp1399
a(I185
I10
I0
S'underlying'
p1400
I83
tp1401
a(I437
I4
I0
S'bigger'
p1402
I83
tp1403
a(I3120
I6
F-0.625
S'other'
p1404
I83
tp1405
a(I3120
I6
F-0.875
S'small'
p1406
I83
tp1407
as(S'back'
p1408
tp1409
(lp1410
(I128
I9
F0.75
S'easy'
p1411
I267
tp1412
a(I128
I9
F0.5
S'responsive'
p1413
I267
tp1414
as(S'product'
p1415
S'reviews'
p1416
tp1417
(lp1418
(I3
I1
F-0.875
S'negative'
p1419
I0
tp1420
a(I505
I0
F-0.625
S'other'
p1421
I0
tp1422
a(I61
I1
F0.5
S'valid'
p1423
I408
tp1424
a(I61
I1
F0.5
S'older'
p1425
I408
tp1426
a(I90
I3
F-0.778
S'mediocre'
p1427
I408
tp1428
a(I128
I2
I0
S'most'
p1429
I408
tp1430
a(I128
I15
F-0.625
S'new'
p1431
I408
tp1432
a(I458
I3
F-0.875
S'wrong'
p1433
I408
tp1434
a(I501
I13
F1.0
S'good'
p1435
I408
tp1436
a(I501
I13
F0.875
S'happy'
p1437
I408
tp1438
a(I729
I2
F0.5
S'return'
p1439
I408
tp1440
a(I729
I2
F-0.625
S'other'
p1441
I408
tp1442
a(I1211
I0
F0.5
S'stylish'
p1443
I408
tp1444
a(I1499
I0
F1.0
S'excellent'
p1445
I408
tp1446
a(I1538
I5
F1.0
S'good'
p1447
I408
tp1448
a(I1624
I0
I0
S'advertised'
p1449
I408
tp1450
a(I1787
I0
F1.0
S'excellent'
p1451
I408
tp1452
a(I1885
I1
F1.0
S'best'
p1453
I408
tp1454
a(I1885
I1
F0.5
S'get'
p1455
I408
tp1456
a(I1885
I1
F-0.875
S'tall'
p1457
I408
tp1458
a(I2135
I0
F0.875
S'great'
p1459
I408
tp1460
a(I2630
I0
F1.0
S'excellent'
p1461
I408
tp1462
as(S'straight'
p1463
S'talk'
p1464
tp1465
(lp1466
(I1456
I2
I0
S'straight'
p1467
I6
tp1468
as(S't.'
p1469
S'mobile'
p1470
tp1471
(lp1472
(I197
I2
F-0.625
S'new'
p1473
I0
tp1474
a(I201
I11
I0
S'specific'
p1475
I0
tp1476
a(I789
I1
F0.625
S'fine'
p1477
I0
tp1478
a(I869
I1
I0
S'ridiculous'
p1479
I0
tp1480
a(I3368
I1
F0.5
S'compatible'
p1481
I0
tp1482
as(S'third'
p1483
S'party'
p1484
tp1485
(lp1486
(I492
I0
I0
S'third'
p1487
I5
tp1488
a(I493
I1
I0
S'third'
p1489
I5
tp1490
a(I769
I13
I0
S'third'
p1491
I5
tp1492
a(I769
I13
F-0.75
S'black'
p1493
I5
tp1494
a(I2921
I8
I0
S'third'
p1495
I5
tp1496
as(S'good'
p1497
S'battery'
p1498
S'life'
p1499
tp1500
(lp1501
(I26
I53
F-0.25
S'battery'
p1502
I4
tp1503
a(I26
I53
F0.625
S'adjustable'
p1504
I4
tp1505
a(I128
I10
F1.0
S'good'
p1506
I4
tp1507
a(I356
I3
F1.0
S'good'
p1508
I4
tp1509
a(I383
I3
F1.0
S'good'
p1510
I4
tp1511
a(I399
I3
F1.0
S'good'
p1512
I4
tp1513
a(I634
I1
F1.0
S'good'
p1514
I4
tp1515
a(I939
I0
F1.0
S'good'
p1516
I4
tp1517
a(I1257
I0
F1.0
S'good'
p1518
I4
tp1519
a(I3167
I31
F1.0
S'good'
p1520
I4
tp1521
a(I3
I35
F0.875
S'amazing'
p1522
I117
tp1523
a(I3
I43
F-0.625
S'other'
p1524
I117
tp1525
a(I3
I124
F0.75
S'due'
p1526
I117
tp1527
a(I26
I53
F-0.25
g1502
I117
tp1528
a(I26
I53
F0.625
g1504
I117
tp1529
a(I128
I10
F1.0
g1506
I117
tp1530
a(I137
I17
I0
S'only'
p1531
I117
tp1532
a(I192
I0
F-0.5
S'long'
p1533
I117
tp1534
a(I193
I2
F-0.5
S'longer'
p1535
I117
tp1536
a(I193
I2
F-0.25
S'battery'
p1537
I117
tp1538
a(I272
I2
F1.0
S'better'
p1539
I117
tp1540
a(I334
I3
F1.0
S'better'
p1541
I117
tp1542
a(I356
I3
F1.0
g1508
I117
tp1543
a(I383
I3
F1.0
g1510
I117
tp1544
a(I399
I3
F1.0
g1512
I117
tp1545
a(I445
I5
F0.875
S'amazing'
p1546
I117
tp1547
a(I445
I7
F1.0
S'better'
p1548
I117
tp1549
a(I510
I6
I0
S'incredible'
p1550
I117
tp1551
a(I634
I1
F1.0
g1514
I117
tp1552
a(I675
I1
F-0.25
S'battery'
p1553
I117
tp1554
a(I939
I0
F1.0
g1516
I117
tp1555
a(I984
I2
F-0.25
S'battery'
p1556
I117
tp1557
a(I1009
I1
F0.875
S'great'
p1558
I117
tp1559
a(I1257
I0
F1.0
g1518
I117
tp1560
a(I1744
I1
F0.875
S'great'
p1561
I117
tp1562
a(I2781
I0
F-0.5
S'long'
p1563
I117
tp1564
a(I2900
I2
F-0.5
S'less'
p1565
I117
tp1566
a(I2900
I2
F-0.25
S'battery'
p1567
I117
tp1568
a(I3167
I1
F0.125
S'fleeting'
p1569
I117
tp1570
a(I3167
I31
F1.0
g1520
I117
tp1571
a(I3
I43
F-0.625
g1524
I194
tp1572
a(I3
I124
F0.75
g1526
I194
tp1573
a(I3
I162
I0
S'android'
p1574
I194
tp1575
a(I3
I162
F1.0
S'better'
p1576
I194
tp1577
a(I26
I53
F-0.25
g1502
I194
tp1578
a(I26
I53
F0.625
g1504
I194
tp1579
a(I128
I10
F1.0
g1506
I194
tp1580
a(I137
I17
I0
g1531
I194
tp1581
a(I193
I2
F-0.5
g1535
I194
tp1582
a(I193
I2
F-0.25
g1537
I194
tp1583
a(I383
I3
F1.0
g1510
I194
tp1584
a(I399
I3
F1.0
g1512
I194
tp1585
a(I445
I5
F0.875
g1546
I194
tp1586
a(I510
I6
I0
g1550
I194
tp1587
a(I675
I1
F-0.25
g1553
I194
tp1588
a(I984
I2
F-0.25
g1556
I194
tp1589
a(I2900
I2
F-0.5
g1565
I194
tp1590
a(I2900
I2
F-0.25
g1567
I194
tp1591
a(I3
I35
F0.875
g1522
I280
tp1592
a(I3
I40
F-0.875
S'lowest'
p1593
I280
tp1594
a(I14
I18
I0
S'pretty'
p1595
I280
tp1596
a(I26
I21
I0
S't'
p1597
I280
tp1598
a(I26
I21
F0.375
S'much'
p1599
I280
tp1600
a(I141
I3
F0.5
S'larger'
p1601
I280
tp1602
a(I181
I9
F-0.75
S'sick'
p1603
I280
tp1604
a(I181
I9
F0.875
S'awesome'
p1605
I280
tp1606
a(I192
I0
F-0.5
g1533
I280
tp1607
a(I272
I2
F1.0
g1539
I280
tp1608
a(I334
I3
F1.0
g1541
I280
tp1609
a(I356
I3
F1.0
g1508
I280
tp1610
a(I445
I7
F1.0
g1548
I280
tp1611
a(I634
I1
F1.0
g1514
I280
tp1612
a(I773
I3
F-0.625
S'permanent'
p1613
I280
tp1614
a(I773
I3
F-0.125
S'such'
p1615
I280
tp1616
a(I939
I0
F1.0
g1516
I280
tp1617
a(I1009
I1
F0.875
g1558
I280
tp1618
a(I1257
I0
F1.0
g1518
I280
tp1619
a(I1385
I0
F1.0
S'good'
p1620
I280
tp1621
a(I1744
I1
F0.875
g1561
I280
tp1622
a(I2171
I0
F1.0
S'good'
p1623
I280
tp1624
a(I2781
I0
F-0.5
g1563
I280
tp1625
a(I3167
I1
F0.125
g1569
I280
tp1626
a(I3167
I31
F1.0
g1520
I280
tp1627
as(S'fingerprint'
p1628
tp1629
(lp1630
(I326
I0
F-1.0
S'bad'
p1631
I82
tp1632
as(S'display'
p1633
tp1634
(lp1635
(I3
I170
F-0.375
S'same'
p1636
I151
tp1637
a(I10
I3
I0
S'stunning'
p1638
I151
tp1639
a(I14
I40
F0.625
S'fine'
p1640
I151
tp1641
a(I26
I20
F0.25
S'helpful'
p1642
I151
tp1643
a(I26
I53
F0.5
S'functional'
p1644
I151
tp1645
a(I34
I1
F-0.625
S'sharp'
p1646
I151
tp1647
a(I35
I6
F-0.625
S'sharp'
p1648
I151
tp1649
a(I35
I6
I0
S'clear'
p1650
I151
tp1651
a(I35
I9
F-0.5
S'less'
p1652
I151
tp1653
a(I35
I11
F-0.625
S'sharp'
p1654
I151
tp1655
a(I35
I11
I0
S'bright'
p1656
I151
tp1657
a(I35
I19
F0.875
S'amazing'
p1658
I151
tp1659
a(I148
I2
I0
S'curved'
p1660
I151
tp1661
a(I148
I2
F0.875
S'amazing'
p1662
I151
tp1663
a(I201
I2
F0.875
S'nice'
p1664
I151
tp1665
a(I201
I9
F1.0
S'good'
p1666
I151
tp1667
a(I392
I1
F1.0
S'best'
p1668
I151
tp1669
a(I609
I4
F-0.778
S'mediocre'
p1670
I151
tp1671
a(I634
I3
F0.875
S'nice'
p1672
I151
tp1673
a(I1162
I1
F0.75
S'beautiful'
p1674
I151
tp1675
a(I1372
I0
F0.875
S'awesome'
p1676
I151
tp1677
a(I1377
I2
I0
S'oled'
p1678
I151
tp1679
a(I1380
I1
F0.75
S'gorgeous'
p1680
I151
tp1681
a(I1380
I4
F0.75
S'gorgeous'
p1682
I151
tp1683
a(I1391
I5
F0.875
S'amazing'
p1684
I151
tp1685
a(I1792
I1
F-0.875
S'small'
p1686
I151
tp1687
a(I1792
I1
F0.875
S'amazing'
p1688
I151
tp1689
a(I1837
I1
F0.875
S'amazing'
p1690
I151
tp1691
a(I3167
I48
F-0.625
S'flat'
p1692
I151
tp1693
a(I3185
I6
F0.75
S'gorgeous'
p1694
I151
tp1695
a(I3315
I2
I0
S'quick'
p1696
I151
tp1697
as(S'low'
p1698
S'light'
p1699
tp1700
(lp1701
(I26
I12
F0.875
S'amazing'
p1702
I18
tp1703
a(I26
I12
F-0.875
S'low'
p1704
I18
tp1705
a(I201
I3
F-0.875
S'low'
p1706
I18
tp1707
a(I630
I1
F-0.875
S'low'
p1708
I18
tp1709
as(g1162
S'screen'
p1710
S'protector'
p1711
tp1712
(lp1713
(I35
I3
F0.625
S'convenient'
p1714
I17
tp1715
a(I35
I19
I0
S'screen'
p1716
I17
tp1717
a(I1372
I1
I0
S'screen'
p1718
I17
tp1719
a(I2989
I1
I0
S'screen'
p1720
I17
tp1721
a(I3355
I3
I0
S't'
p1722
I17
tp1723
a(I35
I3
F0.625
g1714
I51
tp1724
a(I35
I19
I0
g1716
I51
tp1725
a(I1372
I1
I0
g1718
I51
tp1726
a(I2989
I1
I0
g1720
I51
tp1727
a(I3355
I3
I0
g1722
I51
tp1728
a(I3
I7
F0.875
S'nice'
p1729
I730
tp1730
a(I3
I73
F0.5
S'empty'
p1731
I730
tp1732
a(I3
I87
F-0.125
S'overall'
p1733
I730
tp1734
a(I14
I13
F0.625
S'vibrant'
p1735
I730
tp1736
a(I40
I5
I0
S'curved'
p1737
I730
tp1738
a(I40
I5
F0.5
S'touch'
p1739
I730
tp1740
a(I86
I8
I0
S'standard'
p1741
I730
tp1742
a(I93
I5
F0.375
S'phenomenal'
p1743
I730
tp1744
a(I111
I7
F-0.625
S'nervous'
p1745
I730
tp1746
a(I119
I3
F0.5
S'larger'
p1747
I730
tp1748
a(I137
I2
F1.0
S'best'
p1749
I730
tp1750
a(I167
I4
F-0.625
S'unusual'
p1751
I730
tp1752
a(I167
I6
I0
S'isn'
p1753
I730
tp1754
a(I167
I9
F0.5
S'slim'
p1755
I730
tp1756
a(I167
I9
I0
S'big'
p1757
I730
tp1758
a(I185
I0
F-0.125
S'front'
p1759
I730
tp1760
a(I185
I6
F-1.0
S'worst'
p1761
I730
tp1762
a(I193
I4
F0.375
S'much'
p1763
I730
tp1764
a(I193
I4
F0.625
S'smoother'
p1765
I730
tp1766
a(I193
I11
F-0.375
S'cracked'
p1767
I730
tp1768
a(I222
I2
F0.75
S'beautiful'
p1769
I730
tp1770
a(I356
I1
F0.875
S'great'
p1771
I730
tp1772
a(I383
I0
I0
S'incredible'
p1773
I730
tp1774
a(I488
I3
F0.75
S'gorgeous'
p1775
I730
tp1776
a(I497
I7
F-0.625
S'new'
p1777
I730
tp1778
a(I501
I0
F0.75
S'perfect'
p1779
I730
tp1780
a(I501
I5
F0.75
S'perfect'
p1781
I730
tp1782
a(I526
I3
F0.75
S'perfect'
p1783
I730
tp1784
a(I572
I6
I0
S'curved'
p1785
I730
tp1786
a(I609
I3
F0.5
S'large'
p1787
I730
tp1788
a(I652
I2
F0.5
S'larger'
p1789
I730
tp1790
a(I661
I4
I0
S'curved'
p1791
I730
tp1792
a(I661
I4
F-0.625
S'sharp'
p1793
I730
tp1794
a(I675
I1
I0
S'clear'
p1795
I730
tp1796
a(I786
I8
F0.875
S'nice'
p1797
I730
tp1798
a(I935
I7
F0.75
S'whole'
p1799
I730
tp1800
a(I935
I7
I0
S'main'
p1801
I730
tp1802
a(I1013
I1
F0.75
S'beautiful'
p1803
I730
tp1804
a(I1035
I2
F-0.875
S'blue'
p1805
I730
tp1806
a(I1060
I1
I0
S'curved'
p1807
I730
tp1808
a(I1060
I1
F0.625
S'first'
p1809
I730
tp1810
a(I1104
I2
F-0.75
S'black'
p1811
I730
tp1812
a(I1227
I2
F0.5
S'larger'
p1813
I730
tp1814
a(I1227
I2
F0.75
S'gorgeous'
p1815
I730
tp1816
a(I1275
I1
F0.875
S'great'
p1817
I730
tp1818
a(I1744
I2
F0.75
S'beautiful'
p1819
I730
tp1820
a(I2122
I1
I0
S'isn'
p1821
I730
tp1822
a(I2220
I4
F0.375
S'sleek'
p1823
I730
tp1824
a(I2257
I1
F0.5
S'touch'
p1825
I730
tp1826
a(I2492
I1
I0
S'curved'
p1827
I730
tp1828
a(I2496
I8
F-0.625
S'sharp'
p1829
I730
tp1830
a(I2496
I8
I0
S'bright'
p1831
I730
tp1832
a(I2694
I4
F-0.625
S'other'
p1833
I730
tp1834
a(I3002
I2
F0.75
S'easy'
p1835
I730
tp1836
a(I3220
I12
F0.5
S'entire'
p1837
I730
tp1838
as(S'to'
p1839
S'use'
p1840
S'review'
p1841
tp1842
(lp1843
(I3
I4
F0.875
S'decent'
p1844
I0
tp1845
a(I3
I4
I-100
S'verizon'
p1846
I0
tp1847
a(I115
I11
F-0.5
S'original'
p1848
I0
tp1849
a(I572
I0
I0
g561
I0
tp1850
a(I572
I0
F0.875
g563
I0
tp1851
as(S'bixby'
p1852
S'button'
p1853
tp1854
(lp1855
(I10
I7
I0
S's'
p1856
I8
tp1857
a(I81
I8
I0
S'unnecessary'
p1858
I8
tp1859
a(I86
I6
I0
S'own'
p1860
I8
tp1861
a(I86
I6
F-0.875
S'hard'
p1862
I8
tp1863
a(I86
I6
I0
S'useful'
p1864
I8
tp1865
a(I86
I6
F0.5
S'rid'
p1866
I8
tp1867
a(I137
I48
F0.125
S'dedicated'
p1868
I8
tp1869
a(I301
I8
I-100
S'programmable'
p1870
I8
tp1871
a(I563
I6
F-0.75
S'scary'
p1872
I8
tp1873
a(I769
I11
I0
S'awful'
p1874
I8
tp1875
a(I842
I4
F0.625
S'fine'
p1876
I8
tp1877
a(I2496
I36
F0.125
S'dedicated'
p1878
I8
tp1879
a(I2496
I36
F0.625
S'super'
p1880
I8
tp1881
a(I2496
I36
F0.75
S'easy'
p1882
I8
tp1883
a(I3194
I9
F0.25
S'receptive'
p1884
I8
tp1885
a(I3
I70
I-100
S'mic'
p1886
I202
tp1887
a(I10
I10
F-0.75
S'dead'
p1888
I202
tp1889
a(I26
I51
F0.75
S'easier'
p1890
I202
tp1891
a(I81
I8
I0
g1858
I202
tp1892
a(I86
I6
I0
g1860
I202
tp1893
a(I86
I6
F-0.875
g1862
I202
tp1894
a(I86
I6
I0
g1864
I202
tp1895
a(I137
I48
F0.125
g1868
I202
tp1896
a(I171
I4
F0.875
S'great'
p1897
I202
tp1898
a(I514
I4
F-0.875
S'painful'
p1899
I202
tp1900
a(I563
I6
F-0.75
g1872
I202
tp1901
a(I2496
I10
F-0.875
S'hard'
p1902
I202
tp1903
a(I2496
I11
I0
S'physical'
p1904
I202
tp1905
a(I2496
I12
I0
S'physical'
p1906
I202
tp1907
a(I2496
I15
I0
S'virtual'
p1908
I202
tp1909
a(I2496
I36
F0.625
g1880
I202
tp1910
a(I2496
I36
F0.75
g1882
I202
tp1911
a(I3
I131
F-0.875
S'negative'
p1912
I46
tp1913
a(I10
I7
I0
g1856
I46
tp1914
a(I40
I9
F-1.0
S'bad'
p1915
I46
tp1916
a(I86
I6
F0.5
g1866
I46
tp1917
a(I137
I47
F-0.625
S'new'
p1918
I46
tp1919
a(I356
I5
F0.5
S'true'
p1920
I46
tp1921
a(I454
I2
F-0.375
S'disable'
p1922
I46
tp1923
a(I454
I6
F-0.5
S'frustrated'
p1924
I46
tp1925
a(I454
I6
I-100
S'uninstall'
p1926
I46
tp1927
a(I497
I5
F-0.625
S'new'
p1928
I46
tp1929
a(I505
I6
F-0.5
S'annoying'
p1930
I46
tp1931
a(I743
I2
F0.75
S'due'
p1932
I46
tp1933
a(I769
I11
I0
g1874
I46
tp1934
a(I842
I1
I-100
S'nonresponsive'
p1935
I46
tp1936
a(I842
I4
F0.625
g1876
I46
tp1937
a(I1234
I3
F-0.875
S'poor'
p1938
I46
tp1939
a(I1327
I6
F-0.625
S'new'
p1940
I46
tp1941
a(I1972
I1
F-0.625
S'useless'
p1942
I46
tp1943
a(I2220
I8
F-0.75
S'impossible'
p1944
I46
tp1945
a(I2496
I36
F0.125
g1878
I46
tp1946
a(I3194
I9
F0.25
g1884
I46
tp1947
as(S'warranty'
p1948
tp1949
(lp1950
(I61
I0
F0.5
S'valid'
p1951
I46
tp1952
a(I61
I3
F0.375
S'available'
p1953
I46
tp1954
a(I360
I4
F0.875
S'great'
p1955
I46
tp1956
a(I761
I1
F0.375
S'extended'
p1957
I46
tp1958
a(I1562
I3
I0
S's'
p1959
I46
tp1960
a(I1562
I3
F0.875
S'great'
p1961
I46
tp1962
a(I2900
I22
F0.5
S'applicable'
p1963
I46
tp1964
a(I2900
I28
I0
S't'
p1965
I46
tp1966
as(S'easy'
p1967
tp1968
(lp1969
(I1533
I0
F-0.75
S'little'
p1970
I89
tp1971
a(I2031
I1
F0.75
S'easy'
p1972
I89
tp1973
as(S'time'
p1974
tp1975
(lp1976
(I14
I30
F-0.375
S'same'
p1977
I389
tp1978
a(I30
I3
F0.625
S'certain'
p1979
I389
tp1980
a(I40
I10
F0.25
S'helpful'
p1981
I389
tp1982
a(I232
I3
F0.375
S'much'
p1983
I389
tp1984
a(I232
I3
F-0.5
S'extra'
p1985
I389
tp1986
a(I232
I7
I0
S'least'
p1987
I389
tp1988
a(I1327
I5
F-0.75
S'short'
p1989
I389
tp1990
a(I1327
I14
F-0.75
S'short'
p1991
I389
tp1992
a(I1423
I0
I0
S'haven'
p1993
I389
tp1994
a(I1554
I0
F0.625
S'first'
p1995
I389
tp1996
a(I1607
I1
F0.625
S'first'
p1997
I389
tp1998
a(I1841
I0
F-0.5
S'unlocked'
p1999
I389
tp2000
a(I1854
I0
F-0.875
S'hard'
p2001
I389
tp2002
a(I1885
I1
I-100
S'doesn'
p2003
I389
tp2004
a(I1976
I1
F0.625
S'first'
p2005
I389
tp2006
a(I2175
I1
F-0.375
S'same'
p2007
I389
tp2008
a(I2175
I2
F1.0
S'good'
p2009
I389
tp2010
a(I2175
I2
F-0.375
S'same'
p2011
I389
tp2012
a(I2698
I1
F0.625
S'first'
p2013
I389
tp2014
a(I2765
I0
F0.75
S'perfect'
p2015
I389
tp2016
a(I3220
I11
I0
S'only'
p2017
I389
tp2018
a(I3338
I0
F-0.375
S'same'
p2019
I389
tp2020
a(I3359
I0
F-0.375
S'same'
p2021
I389
tp2022
a(I3368
I3
F-0.125
S'general'
p2023
I389
tp2024
as(S'version'
p2025
S'of'
p2026
S'android'
p2027
tp2028
(lp2029
(I236
I12
F-0.25
S'latest'
p2030
I1
tp2031
a(I392
I3
F-0.625
S'newer'
p2032
I1
tp2033
a(I2921
I1
I0
S'only'
p2034
I1
tp2035
a(I2921
I4
I0
S'only'
p2036
I1
tp2037
a(I2921
I4
F-0.75
S'pure'
p2038
I1
tp2039
a(I167
I0
F-0.625
S'new'
p2040
I62
tp2041
a(I222
I7
F0.125
S'usual'
p2042
I62
tp2043
a(I281
I4
F-0.625
S'hesitant'
p2044
I62
tp2045
a(I290
I5
F0.5
S'detailed'
p2046
I62
tp2047
a(I346
I1
I0
S't'
p2048
I62
tp2049
a(I383
I1
F1.0
S'best'
p2050
I62
tp2051
a(I383
I1
F1.0
S'best'
p2052
I62
tp2053
a(I470
I9
F0.125
S'ios'
p2054
I62
tp2055
a(I630
I0
F-0.625
S'other'
p2056
I62
tp2057
a(I2773
I1
F1.0
S'best'
p2058
I62
tp2059
a(I2921
I16
F-0.75
S'pure'
p2060
I62
tp2061
as(S'review'
p2062
S'text'
p2063
S'so'
p2064
tp2065
(lp2066
(I781
I0
F0.75
S'glad'
p2067
I0
tp2068
a(I1885
I1
F-0.875
g533
I0
tp2069
a(I2233
I0
I0
g624
I0
tp2070
a(I2589
I0
F1.0
g642
I0
tp2071
a(I2989
I0
F-0.875
S'upset'
p2072
I0
tp2073
as(S'months'
p2074
tp2075
(lp2076
(I14
I3
F-0.625
S'last'
p2077
I78
tp2078
a(I128
I2
F-0.25
S'couple'
p2079
I78
tp2080
a(I228
I1
I0
S'few'
p2081
I78
tp2082
a(I236
I0
F-0.5
S'several'
p2083
I78
tp2084
a(I254
I2
F-0.5
S'less'
p2085
I78
tp2086
a(I517
I1
F-0.25
S'couple'
p2087
I78
tp2088
a(I518
I0
F-0.25
S'couple'
p2089
I78
tp2090
a(I576
I1
F-0.25
S'couple'
p2091
I78
tp2092
a(I602
I8
I0
S'few'
p2093
I78
tp2094
a(I981
I3
F-0.125
S'next'
p2095
I78
tp2096
a(I981
I3
I0
S'few'
p2097
I78
tp2098
a(I1610
I0
F0.875
S'great'
p2099
I78
tp2100
a(I1610
I2
F0.875
S'great'
p2101
I78
tp2102
a(I2253
I2
F-0.5
S'several'
p2103
I78
tp2104
a(I3167
I46
F-0.125
S'next'
p2105
I78
tp2106
a(I3167
I46
I0
S'few'
p2107
I78
tp2108
as(S'deal'
p2109
tp2110
(lp2111
(I22
I15
I0
S'big'
p2112
I92
tp2113
a(I457
I0
F0.875
S'great'
p2114
I92
tp2115
a(I563
I8
F0.875
S'nice'
p2116
I92
tp2117
a(I764
I0
F0.75
S'fantastic'
p2118
I92
tp2119
a(I786
I10
F0.875
S'great'
p2120
I92
tp2121
a(I818
I3
I0
S't'
p2122
I92
tp2123
a(I908
I5
I0
S'big'
p2124
I92
tp2125
a(I1675
I3
F0.875
S'happy'
p2126
I92
tp2127
a(I1828
I3
F0.875
S'great'
p2128
I92
tp2129
as(S'ear'
p2130
S'buds'
p2131
tp2132
(lp2133
(I3
I54
F1.0
S'best'
p2134
I5
tp2135
a(I3
I54
F0.75
S'ear'
p2136
I5
tp2137
a(I602
I2
F-0.5
S'extra'
p2138
I5
tp2139
as(S'looks'
p2140
tp2141
(lp2142
(I201
I5
F1.0
S'good'
p2143
I67
tp2144
a(I497
I2
F0.875
S'great'
p2145
I67
tp2146
a(I1000
I0
F-0.625
S'real'
p2147
I67
tp2148
a(I1178
I1
F0.875
S'great'
p2149
I67
tp2150
as(S'great'
p2151
S'only'
p2152
S'problem'
p2153
tp2154
(lp2155
(I981
I0
I0
S'only'
p2156
I0
tp2157
a(I981
I1
I0
S'only'
p2158
I0
tp2159
a(I1178
I0
F0.875
S'great'
p2160
I0
tp2161
a(I1178
I0
I0
S'only'
p2162
I0
tp2163
a(I1178
I1
I0
S'only'
p2164
I0
tp2165
a(I61
I2
F-0.375
S'same'
p2166
I191
tp2167
a(I330
I19
F-0.625
S'last'
p2168
I191
tp2169
a(I360
I1
F-0.375
S'same'
p2170
I191
tp2171
a(I449
I5
I0
S'only'
p2172
I191
tp2173
a(I981
I0
I0
g2156
I191
tp2174
a(I981
I1
I0
g2158
I191
tp2175
a(I1034
I0
F-0.625
S'useless'
p2176
I191
tp2177
a(I1178
I0
F0.875
g2160
I191
tp2178
a(I1178
I0
I0
g2162
I191
tp2179
a(I1178
I1
I0
g2164
I191
tp2180
a(I2900
I1
I0
S'biggest'
p2181
I191
tp2182
a(I3120
I1
F-0.75
S'minor'
p2183
I191
tp2184
a(I3282
I2
F0.25
S'recent'
p2185
I191
tp2186
as(S'face'
p2187
S'recognition'
p2188
tp2189
(lp2190
(I249
I2
F0.625
S'convenient'
p2191
I13
tp2192
a(I996
I1
F1.0
S'better'
p2193
I13
tp2194
as(S'review'
p2195
S'header'
p2196
S'love'
p2197
tp2198
(lp2199
(I721
I0
F1.0
g688
I0
tp2200
a(I1042
I0
F-0.625
g1237
I0
tp2201
a(I1885
I0
F-0.875
S'angry'
p2202
I0
tp2203
a(I721
I0
F1.0
g688
I0
tp2204
a(I1042
I0
F-0.625
g1237
I0
tp2205
a(I1885
I0
F-0.875
g2202
I0
tp2206
as(S'everything'
p2207
tp2208
(lp2209
(I93
I11
I0
S'more'
p2210
I161
tp2211
a(I111
I6
F0.5
S'responsive'
p2212
I161
tp2213
a(I144
I3
F-0.625
S'fast'
p2214
I161
tp2215
a(I415
I3
I0
S'more'
p2216
I161
tp2217
a(I526
I2
I0
S'most'
p2218
I161
tp2219
a(I551
I0
F0.875
S'great'
p2220
I161
tp2221
a(I552
I0
F0.875
S'great'
p2222
I161
tp2223
a(I678
I0
F1.0
S'good'
p2224
I161
tp2225
a(I714
I3
F0.75
S'glad'
p2226
I161
tp2227
a(I734
I1
F0.875
S'great'
p2228
I161
tp2229
a(I930
I3
F-0.625
S'new'
p2230
I161
tp2231
a(I1744
I4
I-100
S'deluce'
p2232
I161
tp2233
a(I1890
I7
F-0.5
S'snappy'
p2234
I161
tp2235
a(I1890
I7
F0.875
S'great'
p2236
I161
tp2237
a(I1915
I1
F1.0
S'good'
p2238
I161
tp2239
a(I2148
I0
F0.75
S'perfect'
p2240
I161
tp2241
a(I2607
I0
F-0.375
S'same'
p2242
I161
tp2243
a(I2688
I0
F0.75
S'perfect'
p2244
I161
tp2245
a(I3058
I0
I0
S'more'
p2246
I161
tp2247
as(g1162
S'sim'
p2248
S'card'
p2249
tp2250
(lp2251
(I7
I4
F0.25
S'able'
p2252
I7
tp2253
a(I40
I1
F0.25
S'able'
p2254
I7
tp2255
a(I193
I18
F-0.75
S'free'
p2256
I7
tp2257
a(I290
I6
F-0.625
S'new'
p2258
I7
tp2259
a(I338
I1
I-100
S'nano'
p2260
I7
tp2261
a(I556
I1
F-0.625
S'new'
p2262
I7
tp2263
a(I556
I1
F0.5
S'old'
p2264
I7
tp2265
a(I568
I2
F-0.75
S'free'
p2266
I7
tp2267
a(I661
I1
F0.5
S'ready'
p2268
I7
tp2269
a(I671
I3
F-0.625
S'new'
p2270
I7
tp2271
a(I996
I0
F-0.625
S'new'
p2272
I7
tp2273
a(I1000
I0
F-0.75
S'free'
p2274
I7
tp2275
a(I1150
I3
F-0.625
S'new'
p2276
I7
tp2277
a(I1150
I3
F0.75
S'easy'
p2278
I7
tp2279
a(I1231
I11
F-0.625
S'new'
p2280
I7
tp2281
a(I1327
I3
I0
S'additional'
p2282
I7
tp2283
a(I1460
I2
I0
S'different'
p2284
I7
tp2285
a(I1460
I2
F-0.75
S'free'
p2286
I7
tp2287
a(I1542
I1
F-0.875
S'smaller'
p2288
I7
tp2289
a(I1562
I1
F0.5
S'larger'
p2290
I7
tp2291
a(I3310
I0
F0.75
S'proper'
p2292
I7
tp2293
as(S'camera'
p2294
tp2295
(lp2296
(I3
I146
F-0.125
S'next'
p2297
I383
tp2298
a(I35
I16
F-0.625
S'real'
p2299
I383
tp2300
a(I57
I1
F-0.75
S'defective'
p2301
I383
tp2302
a(I137
I38
F0.75
S'beautiful'
p2303
I383
tp2304
a(I137
I38
F0.5
S'detailed'
p2305
I383
tp2306
a(I181
I9
F0.875
S'great'
p2307
I383
tp2308
a(I185
I2
F-0.125
S'front'
p2309
I383
tp2310
a(I193
I5
F0.5
S'reasonable'
p2311
I383
tp2312
a(I201
I3
F1.0
S'good'
p2313
I383
tp2314
a(I249
I10
F1.0
S'excellent'
p2315
I383
tp2316
a(I272
I3
F-0.875
S'hard'
p2317
I383
tp2318
a(I304
I7
F0.875
S'great'
p2319
I383
tp2320
a(I327
I1
F0.875
S'great'
p2321
I383
tp2322
a(I383
I2
F0.875
S'great'
p2323
I383
tp2324
a(I395
I1
F0.875
S'great'
p2325
I383
tp2326
a(I488
I2
F0.875
S'great'
p2327
I383
tp2328
a(I497
I1
F0.5
S'thin'
p2329
I383
tp2330
a(I497
I1
F0.75
S'perfect'
p2331
I383
tp2332
a(I497
I1
F0.875
S'brilliant'
p2333
I383
tp2334
a(I518
I1
F0.875
S'important'
p2335
I383
tp2336
a(I526
I3
I0
S'wireless'
p2337
I383
tp2338
a(I526
I3
F0.875
S'great'
p2339
I383
tp2340
a(I526
I3
F0.875
S'decent'
p2341
I383
tp2342
a(I630
I1
F0.75
S'fantastic'
p2343
I383
tp2344
a(I743
I1
F0.875
S'great'
p2345
I383
tp2346
a(I879
I2
I0
S'clear'
p2347
I383
tp2348
a(I1315
I2
F0.875
S'great'
p2349
I383
tp2350
a(I1385
I0
F-0.125
S'huge'
p2351
I383
tp2352
a(I1515
I0
F0.75
S'gorgeous'
p2353
I383
tp2354
a(I1515
I1
F0.75
S'gorgeous'
p2355
I383
tp2356
a(I1800
I0
F0.5
S'powerful'
p2357
I383
tp2358
a(I1845
I1
F0.375
S'sleek'
p2359
I383
tp2360
a(I1845
I1
F0.75
S'easy'
p2361
I383
tp2362
a(I2167
I0
F0.5
S'rid'
p2363
I383
tp2364
a(I2167
I0
F1.0
S'good'
p2365
I383
tp2366
a(I2257
I1
F0.875
S'amazing'
p2367
I383
tp2368
a(I2777
I4
F0.375
S'impressive'
p2369
I383
tp2370
a(I3001
I0
F1.0
S'good'
p2371
I383
tp2372
a(I3002
I1
F1.0
S'good'
p2373
I383
tp2374
a(I3282
I0
F0.875
S'nice'
p2375
I383
tp2376
a(I3342
I4
F-0.125
S'next'
p2377
I383
tp2378
as(S'want'
p2379
tp2380
(lp2381
(I2220
I24
I0
S't'
p2382
I221
tp2383
a(I2220
I24
F-0.375
S'disable'
p2384
I221
tp2385
as(S'reviews'
p2386
S'review'
p2387
S'header'
p2388
tp2389
(lp2390
(I406
I0
F-0.875
S'negative'
p2391
I0
tp2392
a(I3
I1
F-0.875
g1419
I0
tp2393
a(I3
I79
I0
S'most'
p2394
I0
tp2395
a(I3
I153
F-0.875
S'negative'
p2396
I0
tp2397
a(I3
I158
F-0.625
S'other'
p2398
I0
tp2399
a(I167
I2
I0
S'more'
p2400
I0
tp2401
a(I167
I2
F0.5
S'detailed'
p2402
I0
tp2403
a(I167
I2
F-0.125
S'overall'
p2404
I0
tp2405
a(I197
I0
F-1.0
S'bad'
p2406
I0
tp2407
a(I197
I0
F-0.75
S'ugly'
p2408
I0
tp2409
a(I294
I2
I0
S'many'
p2410
I0
tp2411
a(I294
I11
F-0.875
S'negative'
p2412
I0
tp2413
a(I406
I0
F-0.875
g2391
I0
tp2414
a(I407
I1
F-0.875
S'negative'
p2415
I0
tp2416
a(I441
I5
F-0.625
S'other'
p2417
I0
tp2418
a(I462
I3
F0.5
S'detailed'
p2419
I0
tp2420
a(I462
I3
F0.875
S'awesome'
p2421
I0
tp2422
a(I505
I0
F-0.625
g1421
I0
tp2423
a(I505
I6
I0
S'most'
p2424
I0
tp2425
a(I743
I2
F0.625
S'fine'
p2426
I0
tp2427
a(I950
I0
F-0.375
S'various'
p2428
I0
tp2429
a(I3
I0
F0.5
S'detailed'
p2430
I0
tp2431
a(I39
I0
F0.875
g1353
I0
tp2432
a(I175
I0
F0.375
S'satisfied'
p2433
I0
tp2434
a(I239
I0
F0.875
g1227
I0
tp2435
a(I276
I0
F-0.125
S'mine'
p2436
I0
tp2437
a(I304
I0
F0.875
g1229
I0
tp2438
a(I448
I0
F0.875
g1355
I0
tp2439
a(I547
I0
I0
S'impressed'
p2440
I0
tp2441
a(I612
I0
F-0.25
S'surprised'
p2442
I0
tp2443
a(I612
I0
F0.875
S'happy'
p2444
I0
tp2445
a(I655
I0
F-0.5
g1231
I0
tp2446
a(I667
I0
I0
g1233
I0
tp2447
a(I896
I0
F0.875
g1235
I0
tp2448
a(I929
I0
F0.625
g1357
I0
tp2449
a(I1042
I0
F-0.625
g1237
I0
tp2450
a(I1330
I0
F0.875
S'great'
p2451
I0
tp2452
a(I1508
I0
F0.875
S'great'
p2453
I0
tp2454
a(I1654
I0
F0.875
g1359
I0
tp2455
a(I1654
I0
F-0.625
g1361
I0
tp2456
a(I1738
I0
F-0.5
S'disappointed'
p2457
I0
tp2458
a(I1885
I0
F-0.875
g2202
I0
tp2459
a(I1893
I0
F0.25
g1363
I0
tp2460
a(I1967
I0
F1.0
g804
I0
tp2461
a(I2117
I0
F-0.625
S'new'
p2462
I0
tp2463
a(I2117
I0
F-0.625
S'unsealed'
p2464
I0
tp2465
a(I2166
I0
F0.75
S'outstanding'
p2466
I0
tp2467
a(I2194
I0
F0.875
S'happy'
p2468
I0
tp2469
a(I2228
I0
F0.75
g1239
I0
tp2470
a(I2256
I0
I0
S't'
p2471
I0
tp2472
a(I2300
I0
F1.0
g806
I0
tp2473
a(I2773
I0
I0
S'different'
p2474
I0
tp2475
a(I3188
I0
F1.0
g808
I0
tp2476
a(I3193
I0
I0
S'advertised'
p2477
I0
tp2478
a(I3367
I0
F-0.125
g1242
I0
tp2479
a(I3371
I0
F0.75
S'fantastic'
p2480
I0
tp2481
a(I3
I1
F-0.875
g1419
I467
tp2482
a(I3
I79
I0
g2394
I467
tp2483
a(I3
I153
F-0.875
g2396
I467
tp2484
a(I3
I158
F-0.625
g2398
I467
tp2485
a(I167
I2
I0
g2400
I467
tp2486
a(I167
I2
F0.5
g2402
I467
tp2487
a(I167
I2
F-0.125
g2404
I467
tp2488
a(I197
I0
F-1.0
g2406
I467
tp2489
a(I197
I0
F-0.75
g2408
I467
tp2490
a(I294
I2
I0
g2410
I467
tp2491
a(I294
I11
F-0.875
g2412
I467
tp2492
a(I406
I0
F-0.875
g2391
I467
tp2493
a(I407
I1
F-0.875
g2415
I467
tp2494
a(I441
I5
F-0.625
g2417
I467
tp2495
a(I462
I3
F0.5
g2419
I467
tp2496
a(I462
I3
F0.875
g2421
I467
tp2497
a(I505
I0
F-0.625
g1421
I467
tp2498
a(I505
I6
I0
g2424
I467
tp2499
a(I743
I2
F0.625
g2426
I467
tp2500
a(I950
I0
F-0.375
g2428
I467
tp2501
as(S'cosmetic'
p2502
S'damage'
p2503
tp2504
(lp2505
(I185
I0
F0.375
S'cosmetic'
p2506
I3
tp2507
a(I185
I9
F0.375
S'cosmetic'
p2508
I3
tp2509
a(I559
I2
F0.375
S'cosmetic'
p2510
I3
tp2511
as(S'good'
p2512
S'review'
p2513
S'text'
p2514
tp2515
(lp2516
(I7
I0
I0
g547
I0
tp2517
a(I40
I0
F1.0
g549
I0
tp2518
a(I197
I0
F1.0
g553
I0
tp2519
a(I939
I0
I0
g572
I0
tp2520
a(I1289
I1
I0
g580
I0
tp2521
a(I1442
I0
F1.0
g584
I0
tp2522
a(I1651
I0
F1.0
g596
I0
tp2523
a(I1920
I0
F1.0
g608
I0
tp2524
a(I2167
I0
F1.0
g620
I0
tp2525
a(I2233
I0
I0
g624
I0
tp2526
a(I2518
I0
I0
g636
I0
tp2527
a(I2518
I0
F1.0
g638
I0
tp2528
a(I2518
I0
F0.375
g640
I0
tp2529
a(I2589
I0
F1.0
g642
I0
tp2530
a(I2594
I0
F1.0
g644
I0
tp2531
a(I2647
I1
I0
g650
I0
tp2532
a(I2938
I0
F1.0
g656
I0
tp2533
a(I3049
I0
F1.0
g664
I0
tp2534
a(I3134
I0
I0
g672
I0
tp2535
a(I3134
I0
F1.0
g674
I0
tp2536
a(I3248
I0
I0
g680
I0
tp2537
a(I3248
I0
F1.0
g682
I0
tp2538
a(I3248
I0
F1.0
g684
I0
tp2539
as(S'review'
p2540
S'header'
p2541
S'samsung'
p2542
tp2543
(lp2544
(I2178
I0
I0
S'third'
p2545
I0
tp2546
a(I2178
I0
F0.375
S'satisfied'
p2547
I0
tp2548
a(I2220
I0
F-0.875
S'pathetic'
p2549
I0
tp2550
a(I3
I94
I0
S'cool'
p2551
I70
tp2552
a(I10
I3
I0
S'specs'
p2553
I70
tp2554
a(I124
I1
F-0.625
S'fast'
p2555
I70
tp2556
a(I124
I1
F0.5
S'older'
p2557
I70
tp2558
a(I124
I7
I-100
S'simillar'
p2559
I70
tp2560
a(I133
I4
F0.75
S'direct'
p2561
I70
tp2562
a(I137
I8
I0
S's'
p2563
I70
tp2564
a(I171
I4
F0.75
S'glad'
p2565
I70
tp2566
a(I201
I14
F0.875
S'great'
p2567
I70
tp2568
a(I236
I8
I0
S'many'
p2569
I70
tp2570
a(I236
I15
I0
S'many'
p2571
I70
tp2572
a(I327
I3
I0
S't'
p2573
I70
tp2574
a(I392
I3
F-0.5
S'slow'
p2575
I70
tp2576
a(I392
I6
F0.5
S'vulnerable'
p2577
I70
tp2578
a(I454
I1
F-0.125
S'overall'
p2579
I70
tp2580
a(I454
I1
F0.875
S'happy'
p2581
I70
tp2582
a(I505
I6
F-0.625
S'other'
p2583
I70
tp2584
a(I656
I1
F1.0
S'best'
p2585
I70
tp2586
a(I675
I0
F0.5
S'old'
p2587
I70
tp2588
a(I683
I3
I0
S'wish'
p2589
I70
tp2590
a(I786
I8
F0.5
S'old'
p2591
I70
tp2592
a(I935
I10
F-0.75
S'impossible'
p2593
I70
tp2594
a(I943
I1
F0.875
S'happy'
p2595
I70
tp2596
a(I943
I1
F-0.625
S'new'
p2597
I70
tp2598
a(I943
I1
F-0.625
S'new'
p2599
I70
tp2600
a(I1051
I1
I0
S'wish'
p2601
I70
tp2602
a(I1170
I0
F-0.75
S'unused'
p2603
I70
tp2604
a(I1170
I0
F-0.625
S'untouched'
p2605
I70
tp2606
a(I1562
I4
I-100
S'app'
p2607
I70
tp2608
a(I1739
I3
F0.625
S'first'
p2609
I70
tp2610
a(I1885
I1
F-1.0
S'sad'
p2611
I70
tp2612
a(I2178
I0
I0
g2545
I70
tp2613
a(I2178
I0
F0.375
g2547
I70
tp2614
a(I2179
I1
I0
S'third'
p2615
I70
tp2616
a(I2179
I1
F0.375
S'satisfied'
p2617
I70
tp2618
a(I2220
I0
F-0.875
g2549
I70
tp2619
a(I2220
I7
F-0.625
S'new'
p2620
I70
tp2621
a(I2220
I21
F-0.625
S'last'
p2622
I70
tp2623
a(I2496
I37
F0.5
S'possible'
p2624
I70
tp2625
a(I2900
I39
F-0.5
S'less'
p2626
I70
tp2627
a(I2921
I14
I0
S't'
p2628
I70
tp2629
a(I2921
I14
F0.25
S'forgive'
p2630
I70
tp2631
a(I3120
I8
F-0.625
S'last'
p2632
I70
tp2633
as(S'headphone'
p2634
S'jack'
p2635
tp2636
(lp2637
(I90
I5
F0.75
S'proper'
p2638
I23
tp2639
a(I90
I6
F-0.5
S'regular'
p2640
I23
tp2641
a(I249
I13
F-0.875
S'cheap'
p2642
I23
tp2643
as(S'issues'
p2644
tp2645
(lp2646
(I26
I40
I0
S't'
p2647
I96
tp2648
a(I26
I40
F0.375
S'much'
p2649
I96
tp2650
a(I148
I7
F0.75
S'cautious'
p2651
I96
tp2652
a(I200
I0
F0.625
S'major'
p2653
I96
tp2654
a(I201
I0
F0.625
S'major'
p2655
I96
tp2656
a(I228
I9
F0.375
S'privacy'
p2657
I96
tp2658
a(I392
I12
F-0.625
S'other'
p2659
I96
tp2660
a(I630
I2
I0
S'only'
p2661
I96
tp2662
a(I630
I2
F-0.625
S'real'
p2663
I96
tp2664
a(I1327
I5
F-0.625
S'other'
p2665
I96
tp2666
a(I2131
I0
F0.875
S'great'
p2667
I96
tp2668
as(S'1'
p2669
g7
S'review'
p2670
tp2671
(lp2672
(I1858
I0
F0.875
g11
I0
tp2673
as(S'review'
p2674
S'header'
p2675
S'great'
p2676
tp2677
(lp2678
(I39
I0
F0.875
g1353
I0
tp2679
a(I304
I0
F0.875
g1229
I0
tp2680
a(I448
I0
F0.875
g1355
I0
tp2681
a(I896
I0
F0.875
g1235
I0
tp2682
a(I1330
I0
F0.875
g2451
I0
tp2683
a(I1508
I0
F0.875
g2453
I0
tp2684
a(I1654
I0
F0.875
g1359
I0
tp2685
a(I1654
I0
F-0.625
g1361
I0
tp2686
a(I39
I0
F0.875
g1353
I0
tp2687
a(I304
I0
F0.875
g1229
I0
tp2688
a(I448
I0
F0.875
g1355
I0
tp2689
a(I896
I0
F0.875
g1235
I0
tp2690
a(I1330
I0
F0.875
g2451
I0
tp2691
a(I1508
I0
F0.875
g2453
I0
tp2692
a(I1654
I0
F0.875
g1359
I0
tp2693
a(I1654
I0
F-0.625
g1361
I0
tp2694
as(S'to'
p2695
S'use'
p2696
S'google'
p2697
tp2698
(lp2699
(I10
I8
F0.375
S'content'
p2700
I1
tp2701
a(I290
I7
F-0.125
S'chrome'
p2702
I1
tp2703
a(I3
I127
F0.375
S'ok'
p2704
I32
tp2705
a(I10
I8
F0.375
g2700
I32
tp2706
a(I249
I9
I0
S'sure'
p2707
I32
tp2708
a(I290
I7
F-0.125
g2702
I32
tp2709
a(I441
I6
F1.0
g910
I32
tp2710
a(I441
I6
I0
g912
I32
tp2711
a(I769
I12
I0
S't'
p2712
I32
tp2713
as(g1162
S'great'
p2714
S'price'
p2715
tp2716
(lp2717
(I272
I0
F0.875
g1020
I11
tp2718
a(I395
I0
F0.875
g1022
I11
tp2719
a(I661
I6
F0.875
g1044
I11
tp2720
a(I1144
I0
I0
g1024
I11
tp2721
a(I1423
I0
F1.0
g1026
I11
tp2722
a(I1423
I0
F0.375
g1028
I11
tp2723
a(I1482
I0
F0.875
g1030
I11
tp2724
a(I1483
I0
F0.875
g1032
I11
tp2725
a(I1684
I0
F1.0
g1034
I11
tp2726
a(I1792
I0
F0.875
g1036
I11
tp2727
a(I1827
I1
F0.875
g1053
I11
tp2728
a(I1828
I1
F0.875
g1055
I11
tp2729
a(I2086
I0
F0.875
g1038
I11
tp2730
a(I2347
I0
F0.875
g1040
I11
tp2731
as(S'better'
p2732
tp2733
(lp2734
(I682
I0
I0
S'nexus'
p2735
I230
tp2736
as(S'device'
p2737
tp2738
(lp2739
(I119
I8
I0
S'sure'
p2740
I245
tp2741
a(I119
I8
F0.125
S'mobile'
p2742
I245
tp2743
a(I184
I0
F0.375
S'used'
p2744
I245
tp2745
a(I185
I0
F0.375
S'used'
p2746
I245
tp2747
a(I185
I0
I0
S'rebuilt'
p2748
I245
tp2749
a(I185
I0
F-0.75
S'likely'
p2750
I245
tp2751
a(I185
I0
I0
S'prior'
p2752
I245
tp2753
a(I185
I5
F0.375
S'used'
p2754
I245
tp2755
a(I222
I0
F-0.625
S'waterproof'
p2756
I245
tp2757
a(I254
I1
F0.375
S'used'
p2758
I245
tp2759
a(I359
I0
F0.625
S'fine'
p2760
I245
tp2761
a(I360
I3
F0.625
S'fine'
p2762
I245
tp2763
a(I392
I1
F1.0
S'best'
p2764
I245
tp2765
a(I392
I1
I0
S'android'
p2766
I245
tp2767
a(I392
I1
F1.0
S'best'
p2768
I245
tp2769
a(I392
I15
F0.625
S'fine'
p2770
I245
tp2771
a(I395
I1
F0.75
S'gorgeous'
p2772
I245
tp2773
a(I1110
I0
F0.875
S'awesome'
p2774
I245
tp2775
a(I1110
I0
I0
S'incredible'
p2776
I245
tp2777
a(I1110
I2
F0.875
S'awesome'
p2778
I245
tp2779
a(I1110
I2
I0
S'incredible'
p2780
I245
tp2781
a(I1451
I0
I0
S'android'
p2782
I245
tp2783
a(I1452
I0
F1.0
S'best'
p2784
I245
tp2785
a(I1452
I0
I0
S'android'
p2786
I245
tp2787
a(I1667
I2
F1.0
S'best'
p2788
I245
tp2789
a(I1667
I2
F0.125
S'mobile'
p2790
I245
tp2791
a(I2531
I0
F0.75
S'wonderful'
p2792
I245
tp2793
a(I2921
I17
F0.125
S'ios'
p2794
I245
tp2795
as(S'price'
p2796
S'review'
p2797
S'text'
p2798
tp2799
(lp2800
(I254
I0
F0.375
S'full'
p2801
I0
tp2802
a(I254
I0
F0.875
S'happy'
p2803
I0
tp2804
a(I272
I0
F0.875
g1020
I0
tp2805
a(I1423
I0
F1.0
g1026
I0
tp2806
a(I1423
I0
F0.375
g1028
I0
tp2807
a(I1483
I0
F0.875
g1032
I0
tp2808
a(I1684
I0
F1.0
g1034
I0
tp2809
a(I1792
I0
F0.875
g1036
I0
tp2810
a(I2347
I0
F0.875
g1040
I0
tp2811
a(I2635
I0
I0
g648
I0
tp2812
a(I2635
I0
F1.0
S'excellent'
p2813
I0
tp2814
a(I254
I0
F0.375
g2801
I0
tp2815
a(I254
I0
F0.875
g2803
I0
tp2816
a(I272
I0
F0.875
g1020
I0
tp2817
a(I395
I0
F0.875
g1022
I0
tp2818
a(I505
I8
F-0.625
S'other'
p2819
I0
tp2820
a(I1144
I0
I0
g1024
I0
tp2821
a(I1423
I0
F1.0
g1026
I0
tp2822
a(I1423
I0
F0.375
g1028
I0
tp2823
a(I1482
I0
F0.875
g1030
I0
tp2824
a(I1483
I0
F0.875
g1032
I0
tp2825
a(I1684
I0
F1.0
g1034
I0
tp2826
a(I1792
I0
F0.875
g1036
I0
tp2827
a(I2086
I0
F0.875
g1038
I0
tp2828
a(I2347
I0
F0.875
g1040
I0
tp2829
a(I2634
I0
F1.0
S'excellent'
p2830
I0
tp2831
a(I2635
I0
I0
g648
I0
tp2832
a(I2635
I0
F1.0
g2813
I0
tp2833
a(I254
I0
F0.375
g2801
I410
tp2834
a(I254
I0
F0.875
g2803
I410
tp2835
a(I272
I0
F0.875
g1020
I410
tp2836
a(I395
I0
F0.875
g1022
I410
tp2837
a(I576
I3
F0.875
S'amazing'
p2838
I410
tp2839
a(I597
I1
I0
S'incredible'
p2840
I410
tp2841
a(I626
I5
F0.375
S'full'
p2842
I410
tp2843
a(I634
I14
I0
S'impressed'
p2844
I410
tp2845
a(I661
I6
F0.875
g1044
I410
tp2846
a(I869
I1
I0
S'retail'
p2847
I410
tp2848
a(I1144
I0
I0
g1024
I410
tp2849
a(I1268
I2
F0.5
S'higher'
p2850
I410
tp2851
a(I1423
I0
F1.0
g1026
I410
tp2852
a(I1423
I0
F0.375
g1028
I410
tp2853
a(I1482
I0
F0.875
g1030
I410
tp2854
a(I1483
I0
F0.875
g1032
I410
tp2855
a(I1684
I0
F1.0
g1034
I410
tp2856
a(I1792
I0
F0.875
g1036
I410
tp2857
a(I1827
I1
F0.875
g1053
I410
tp2858
a(I1828
I1
F0.875
g1055
I410
tp2859
a(I1964
I1
F-0.875
S'cheaper'
p2860
I410
tp2861
a(I1964
I1
F0.125
S'usual'
p2862
I410
tp2863
a(I2086
I0
F0.875
g1038
I410
tp2864
a(I2347
I0
F0.875
g1040
I410
tp2865
a(I2634
I0
F1.0
g2830
I410
tp2866
a(I2635
I0
F1.0
g2813
I410
tp2867
as(S'new'
p2868
S'sim'
p2869
S'card'
p2870
tp2871
(lp2872
(I290
I6
F-0.625
g2258
I2
tp2873
a(I556
I1
F-0.625
g2262
I2
tp2874
a(I556
I1
F0.5
g2264
I2
tp2875
a(I671
I3
F-0.625
g2270
I2
tp2876
a(I996
I0
F-0.625
g2272
I2
tp2877
a(I1000
I0
F-0.75
g2274
I2
tp2878
a(I1150
I3
F-0.625
g2276
I2
tp2879
a(I1150
I3
F0.75
g2278
I2
tp2880
a(I1231
I11
F-0.625
g2280
I2
tp2881
a(I7
I4
F0.25
g2252
I40
tp2882
a(I40
I1
F0.25
g2254
I40
tp2883
a(I193
I18
F-0.75
g2256
I40
tp2884
a(I290
I6
F-0.625
g2258
I40
tp2885
a(I556
I1
F-0.625
g2262
I40
tp2886
a(I556
I1
F0.5
g2264
I40
tp2887
a(I568
I2
F-0.75
g2266
I40
tp2888
a(I661
I1
F0.5
g2268
I40
tp2889
a(I671
I3
F-0.625
g2270
I40
tp2890
a(I996
I0
F-0.625
g2272
I40
tp2891
a(I1000
I0
F-0.75
g2274
I40
tp2892
a(I1150
I3
F-0.625
g2276
I40
tp2893
a(I1150
I3
F0.75
g2278
I40
tp2894
a(I1231
I11
F-0.625
g2280
I40
tp2895
a(I1327
I3
I0
g2282
I40
tp2896
a(I1460
I2
I0
g2284
I40
tp2897
a(I1460
I2
F-0.75
g2286
I40
tp2898
a(I1542
I1
F-0.875
g2288
I40
tp2899
a(I1562
I1
F0.5
g2290
I40
tp2900
a(I3310
I0
F0.75
g2292
I40
tp2901
a(I7
I4
F0.25
g2252
I162
tp2902
a(I40
I1
F0.25
g2254
I162
tp2903
a(I193
I18
F-0.75
g2256
I162
tp2904
a(I556
I1
F0.5
g2264
I162
tp2905
a(I661
I1
F0.5
g2268
I162
tp2906
a(I999
I0
I-100
S'sims'
p2907
I162
tp2908
a(I1000
I0
F-0.75
g2274
I162
tp2909
a(I1150
I3
F0.75
g2278
I162
tp2910
a(I1460
I2
F-0.75
g2286
I162
tp2911
a(I1542
I1
F-0.875
g2288
I162
tp2912
a(I1562
I1
F0.5
g2290
I162
tp2913
as(S'apps'
p2914
tp2915
(lp2916
(I3
I68
I0
S'more'
p2917
I192
tp2918
a(I22
I5
I0
S'standard'
p2919
I192
tp2920
a(I81
I18
F0.875
S'great'
p2921
I192
tp2922
a(I137
I12
F0.625
S'certain'
p2923
I192
tp2924
a(I137
I55
I0
S't'
p2925
I192
tp2926
a(I137
I55
F-0.625
S'other'
p2927
I192
tp2928
a(I141
I1
I0
S'most'
p2929
I192
tp2930
a(I193
I13
I0
S'most'
p2931
I192
tp2932
a(I193
I13
F0.25
S'basic'
p2933
I192
tp2934
a(I219
I2
I0
S'different'
p2935
I192
tp2936
a(I334
I5
F-0.625
S'new'
p2937
I192
tp2938
a(I399
I2
I-100
S'usefull'
p2939
I192
tp2940
a(I441
I10
F0.375
S'favorite'
p2941
I192
tp2942
a(I568
I6
F0.375
S'available'
p2943
I192
tp2944
a(I634
I6
F-0.5
S'several'
p2945
I192
tp2946
a(I634
I6
F-0.625
S'buggy'
p2947
I192
tp2948
a(I718
I2
F0.625
S'certain'
p2949
I192
tp2950
a(I984
I0
F0.875
S'great'
p2951
I192
tp2952
a(I984
I5
F0.875
S'great'
p2953
I192
tp2954
a(I984
I5
F0.75
S'easy'
p2955
I192
tp2956
a(I1013
I4
F1.0
S'excellent'
p2957
I192
tp2958
a(I2167
I0
F0.375
S'available'
p2959
I192
tp2960
a(I2175
I1
F0.25
S'able'
p2961
I192
tp2962
a(I2175
I1
I0
S'multiple'
p2963
I192
tp2964
a(I3002
I4
I0
S'different'
p2965
I192
tp2966
as(S'amazon'
p2967
tp2968
(lp2969
(I7
I8
F-0.875
S'cheaper'
p2970
I224
tp2971
a(I30
I2
F-0.5
S'disappointed'
p2972
I224
tp2973
a(I119
I1
F-0.875
S'cheaper'
p2974
I224
tp2975
a(I290
I4
F0.625
S'prime'
p2976
I224
tp2977
a(I458
I0
F0.5
S'like'
p2978
I224
tp2979
a(I458
I0
F-0.625
S'new'
p2980
I224
tp2981
a(I493
I2
I0
S'listed'
p2982
I224
tp2983
a(I838
I3
F0.25
S'spectacular'
p2984
I224
tp2985
a(I1994
I1
F-0.5
S'less'
p2986
I224
tp2987
a(I2702
I0
F0.875
S'happy'
p2988
I224
tp2989
as(S'days'
p2990
tp2991
(lp2992
(I35
I16
F0.625
S'first'
p2993
I113
tp2994
a(I35
I16
I0
S'few'
p2995
I113
tp2996
a(I90
I6
I0
S'few'
p2997
I113
tp2998
a(I124
I4
F0.125
S'enough'
p2999
I113
tp3000
a(I144
I7
I0
S'few'
p3001
I113
tp3002
a(I602
I4
F-0.625
S'new'
p3003
I113
tp3004
a(I602
I4
I0
S'few'
p3005
I113
tp3006
a(I769
I4
F-0.5
S'less'
p3007
I113
tp3008
a(I814
I0
F0.375
S'full'
p3009
I113
tp3010
a(I893
I4
F-0.5
S'several'
p3011
I113
tp3012
a(I2187
I0
F-0.5
S'less'
p3013
I113
tp3014
a(I2379
I2
F-0.5
S'long'
p3015
I113
tp3016
as.