(dp0
(S'something'
p1
tp2
(lp3
(I364
I11
F0.375
S'worthwhile'
p4
I95
tp5
a(I2200
I8
F-0.5
S'frustrated'
p6
I95
tp7
a(I2200
I8
F-0.875
S'angry'
p8
I95
tp9
a(I2200
I8
F0.5
S'expensive'
p10
I95
tp11
a(I2243
I1
F-0.875
S'small'
p12
I95
tp13
a(I2243
I3
F-0.875
S'small'
p14
I95
tp15
a(I2431
I11
F0.875
S'amazing'
p16
I95
tp17
a(I2472
I7
F-0.875
S'terrible'
p18
I95
tp19
a(I2605
I6
F-0.625
S'new'
p20
I95
tp21
as(S'review'
p22
S'text'
p23
S'really'
p24
tp25
(lp26
(I1060
I0
F0.875
S'nice'
p27
I0
tp28
as(S'url'
p29
S'http'
p30
S'www'
p31
tp32
(lp33
(I56
I0
I0
S'url'
p34
I0
tp35
a(I109
I0
I0
S'url'
p36
I0
tp37
a(I158
I0
I0
S'url'
p38
I0
tp39
a(I214
I0
I0
S'url'
p40
I0
tp41
a(I268
I0
I0
S'url'
p42
I0
tp43
a(I327
I0
I0
S'url'
p44
I0
tp45
a(I382
I0
I0
S'url'
p46
I0
tp47
a(I435
I0
I0
S'url'
p48
I0
tp49
a(I494
I0
I0
S'url'
p50
I0
tp51
a(I551
I0
I0
S'url'
p52
I0
tp53
a(I611
I0
I0
S'url'
p54
I0
tp55
a(I669
I0
I0
S'url'
p56
I0
tp57
a(I730
I0
I0
S'url'
p58
I0
tp59
a(I792
I0
I0
S'url'
p60
I0
tp61
a(I853
I0
I0
S'url'
p62
I0
tp63
a(I915
I0
I0
S'url'
p64
I0
tp65
a(I979
I0
I0
S'url'
p66
I0
tp67
a(I1041
I0
I0
S'url'
p68
I0
tp69
a(I1099
I0
I0
S'url'
p70
I0
tp71
a(I1161
I0
I0
S'url'
p72
I0
tp73
a(I1222
I0
I0
S'url'
p74
I0
tp75
a(I1285
I0
I0
S'url'
p76
I0
tp77
a(I1344
I0
I0
S'url'
p78
I0
tp79
a(I1405
I0
I0
S'url'
p80
I0
tp81
a(I1463
I0
I0
S'url'
p82
I0
tp83
a(I1521
I0
I0
S'url'
p84
I0
tp85
a(I1583
I0
I0
S'url'
p86
I0
tp87
a(I1646
I0
I0
S'url'
p88
I0
tp89
a(I1703
I0
I0
S'url'
p90
I0
tp91
a(I1762
I0
I0
S'url'
p92
I0
tp93
a(I1822
I0
I0
S'url'
p94
I0
tp95
a(I1882
I0
I0
S'url'
p96
I0
tp97
a(I1943
I0
I0
S'url'
p98
I0
tp99
a(I2003
I0
I0
S'url'
p100
I0
tp101
a(I2064
I0
I0
S'url'
p102
I0
tp103
a(I2121
I0
I0
S'url'
p104
I0
tp105
a(I2179
I0
I0
S'url'
p106
I0
tp107
a(I2237
I0
I0
S'url'
p108
I0
tp109
a(I2292
I0
I0
S'url'
p110
I0
tp111
a(I2344
I0
I0
S'url'
p112
I0
tp113
a(I2395
I0
I0
S'url'
p114
I0
tp115
a(I2450
I0
I0
S'url'
p116
I0
tp117
a(I2506
I0
I0
S'url'
p118
I0
tp119
a(I2565
I0
I0
S'url'
p120
I0
tp121
a(I2620
I0
I0
S'url'
p122
I0
tp123
a(I2675
I0
I0
S'url'
p124
I0
tp125
a(I2732
I0
I0
S'url'
p126
I0
tp127
a(I2776
I0
I0
S'url'
p128
I0
tp129
a(I56
I0
I0
g34
I0
tp130
a(I109
I0
I0
g36
I0
tp131
a(I158
I0
I0
g38
I0
tp132
a(I214
I0
I0
g40
I0
tp133
a(I268
I0
I0
g42
I0
tp134
a(I327
I0
I0
g44
I0
tp135
a(I382
I0
I0
g46
I0
tp136
a(I435
I0
I0
g48
I0
tp137
a(I494
I0
I0
g50
I0
tp138
a(I551
I0
I0
g52
I0
tp139
a(I611
I0
I0
g54
I0
tp140
a(I669
I0
I0
g56
I0
tp141
a(I730
I0
I0
g58
I0
tp142
a(I792
I0
I0
g60
I0
tp143
a(I853
I0
I0
g62
I0
tp144
a(I915
I0
I0
g64
I0
tp145
a(I979
I0
I0
g66
I0
tp146
a(I1041
I0
I0
g68
I0
tp147
a(I1099
I0
I0
g70
I0
tp148
a(I1161
I0
I0
g72
I0
tp149
a(I1222
I0
I0
g74
I0
tp150
a(I1285
I0
I0
g76
I0
tp151
a(I1344
I0
I0
g78
I0
tp152
a(I1405
I0
I0
g80
I0
tp153
a(I1463
I0
I0
g82
I0
tp154
a(I1521
I0
I0
g84
I0
tp155
a(I1583
I0
I0
g86
I0
tp156
a(I1646
I0
I0
g88
I0
tp157
a(I1703
I0
I0
g90
I0
tp158
a(I1762
I0
I0
g92
I0
tp159
a(I1822
I0
I0
g94
I0
tp160
a(I1882
I0
I0
g96
I0
tp161
a(I1943
I0
I0
g98
I0
tp162
a(I2003
I0
I0
g100
I0
tp163
a(I2064
I0
I0
g102
I0
tp164
a(I2121
I0
I0
g104
I0
tp165
a(I2179
I0
I0
g106
I0
tp166
a(I2237
I0
I0
g108
I0
tp167
a(I2292
I0
I0
g110
I0
tp168
a(I2344
I0
I0
g112
I0
tp169
a(I2395
I0
I0
g114
I0
tp170
a(I2450
I0
I0
g116
I0
tp171
a(I2506
I0
I0
g118
I0
tp172
a(I2565
I0
I0
g120
I0
tp173
a(I2620
I0
I0
g122
I0
tp174
a(I2675
I0
I0
g124
I0
tp175
a(I2732
I0
I0
g126
I0
tp176
a(I2776
I0
I0
g128
I0
tp177
a(I56
I0
I0
g34
I0
tp178
a(I109
I0
I0
g36
I0
tp179
a(I158
I0
I0
g38
I0
tp180
a(I214
I0
I0
g40
I0
tp181
a(I268
I0
I0
g42
I0
tp182
a(I327
I0
I0
g44
I0
tp183
a(I382
I0
I0
g46
I0
tp184
a(I435
I0
I0
g48
I0
tp185
a(I494
I0
I0
g50
I0
tp186
a(I551
I0
I0
g52
I0
tp187
a(I611
I0
I0
g54
I0
tp188
a(I669
I0
I0
g56
I0
tp189
a(I730
I0
I0
g58
I0
tp190
a(I792
I0
I0
g60
I0
tp191
a(I853
I0
I0
g62
I0
tp192
a(I915
I0
I0
g64
I0
tp193
a(I979
I0
I0
g66
I0
tp194
a(I1041
I0
I0
g68
I0
tp195
a(I1099
I0
I0
g70
I0
tp196
a(I1161
I0
I0
g72
I0
tp197
a(I1222
I0
I0
g74
I0
tp198
a(I1285
I0
I0
g76
I0
tp199
a(I1344
I0
I0
g78
I0
tp200
a(I1405
I0
I0
g80
I0
tp201
a(I1463
I0
I0
g82
I0
tp202
a(I1521
I0
I0
g84
I0
tp203
a(I1583
I0
I0
g86
I0
tp204
a(I1646
I0
I0
g88
I0
tp205
a(I1703
I0
I0
g90
I0
tp206
a(I1762
I0
I0
g92
I0
tp207
a(I1822
I0
I0
g94
I0
tp208
a(I1882
I0
I0
g96
I0
tp209
a(I1943
I0
I0
g98
I0
tp210
a(I2003
I0
I0
g100
I0
tp211
a(I2064
I0
I0
g102
I0
tp212
a(I2121
I0
I0
g104
I0
tp213
a(I2179
I0
I0
g106
I0
tp214
a(I2237
I0
I0
g108
I0
tp215
a(I2292
I0
I0
g110
I0
tp216
a(I2344
I0
I0
g112
I0
tp217
a(I2395
I0
I0
g114
I0
tp218
a(I2450
I0
I0
g116
I0
tp219
a(I2506
I0
I0
g118
I0
tp220
a(I2565
I0
I0
g120
I0
tp221
a(I2620
I0
I0
g122
I0
tp222
a(I2675
I0
I0
g124
I0
tp223
a(I2732
I0
I0
g126
I0
tp224
a(I2776
I0
I0
g128
I0
tp225
a(I56
I0
I0
g34
I210
tp226
a(I109
I0
I0
g36
I210
tp227
a(I158
I0
I0
g38
I210
tp228
a(I214
I0
I0
g40
I210
tp229
a(I268
I0
I0
g42
I210
tp230
a(I327
I0
I0
g44
I210
tp231
a(I382
I0
I0
g46
I210
tp232
a(I435
I0
I0
g48
I210
tp233
a(I494
I0
I0
g50
I210
tp234
a(I551
I0
I0
g52
I210
tp235
a(I611
I0
I0
g54
I210
tp236
a(I669
I0
I0
g56
I210
tp237
a(I730
I0
I0
g58
I210
tp238
a(I792
I0
I0
g60
I210
tp239
a(I853
I0
I0
g62
I210
tp240
a(I915
I0
I0
g64
I210
tp241
a(I979
I0
I0
g66
I210
tp242
a(I1041
I0
I0
g68
I210
tp243
a(I1099
I0
I0
g70
I210
tp244
a(I1161
I0
I0
g72
I210
tp245
a(I1222
I0
I0
g74
I210
tp246
a(I1285
I0
I0
g76
I210
tp247
a(I1344
I0
I0
g78
I210
tp248
a(I1405
I0
I0
g80
I210
tp249
a(I1463
I0
I0
g82
I210
tp250
a(I1521
I0
I0
g84
I210
tp251
a(I1583
I0
I0
g86
I210
tp252
a(I1646
I0
I0
g88
I210
tp253
a(I1703
I0
I0
g90
I210
tp254
a(I1762
I0
I0
g92
I210
tp255
a(I1822
I0
I0
g94
I210
tp256
a(I1882
I0
I0
g96
I210
tp257
a(I1943
I0
I0
g98
I210
tp258
a(I2003
I0
I0
g100
I210
tp259
a(I2064
I0
I0
g102
I210
tp260
a(I2121
I0
I0
g104
I210
tp261
a(I2179
I0
I0
g106
I210
tp262
a(I2237
I0
I0
g108
I210
tp263
a(I2292
I0
I0
g110
I210
tp264
a(I2344
I0
I0
g112
I210
tp265
a(I2395
I0
I0
g114
I210
tp266
a(I2450
I0
I0
g116
I210
tp267
a(I2506
I0
I0
g118
I210
tp268
a(I2565
I0
I0
g120
I210
tp269
a(I2620
I0
I0
g122
I210
tp270
a(I2675
I0
I0
g124
I210
tp271
a(I2732
I0
I0
g126
I210
tp272
a(I2776
I0
I0
g128
I210
tp273
as(S'years'
p274
tp275
(lp276
(I364
I31
I0
S'few'
p277
I101
tp278
a(I2260
I3
F-0.25
S'past'
p279
I101
tp280
a(I2351
I5
I0
S'many'
p281
I101
tp282
a(I2476
I6
F-0.625
S'last'
p283
I101
tp284
a(I2513
I0
I0
S'many'
p285
I101
tp286
a(I2627
I83
I0
S'least'
p287
I101
tp288
a(I2627
I84
F-0.125
S'next'
p289
I101
tp290
a(I2627
I87
I0
S'few'
p291
I101
tp292
a(I2627
I87
I0
S'least'
p293
I101
tp294
a(I2659
I3
F-0.625
S'last'
p295
I101
tp296
a(I2717
I6
I0
S'many'
p297
I101
tp298
as(S'iphone'
p299
tp300
(lp301
(I14
I38
F0.875
S'nice'
p302
I64
tp303
a(I37
I0
F1.0
S'better'
p304
I64
tp305
a(I364
I45
F-0.5
S'original'
p306
I64
tp307
a(I456
I2
F0.5
S'old'
p308
I64
tp309
a(I1068
I0
F0.875
S'happy'
p310
I64
tp311
a(I2213
I8
F0.5
S'old'
p312
I64
tp313
a(I2415
I5
F0.5
S'old'
p314
I64
tp315
a(I2513
I0
F0.625
S'smooth'
p316
I64
tp317
a(I2513
I0
F-0.625
S'fast'
p318
I64
tp319
a(I2627
I63
F-0.875
S'smaller'
p320
I64
tp321
a(I2659
I3
F-0.5
S'slower'
p322
I64
tp323
a(I2710
I1
F-0.625
S'new'
p324
I64
tp325
as(S'quality'
p326
tp327
(lp328
(I221
I2
F0.375
S'phenomenal'
p329
I157
tp330
a(I312
I1
F-0.5
S'original'
p331
I157
tp332
a(I360
I1
F-0.5
S'failed'
p333
I157
tp334
a(I1427
I2
F-0.875
S'terrible'
p335
I157
tp336
a(I1427
I2
F1.0
S'better'
p337
I157
tp338
a(I2213
I13
F0.875
S'great'
p339
I157
tp340
a(I2281
I4
I0
S'build'
p341
I157
tp342
a(I2281
I6
F0.75
S'outstanding'
p343
I157
tp344
a(I2281
I9
I0
S'screen'
p345
I157
tp346
a(I2281
I18
F-0.625
S'other'
p347
I157
tp348
a(I2384
I4
F0.875
S'great'
p349
I157
tp350
a(I2513
I1
F0.875
S'amazing'
p351
I157
tp352
as(S'review'
p353
S'text'
p354
S'love'
p355
tp356
(lp357
(I343
I0
F-0.5
S'international'
p358
I0
tp359
a(I761
I0
F0.875
S'great'
p360
I0
tp361
a(I343
I0
F-0.5
g358
I0
tp362
a(I761
I0
F0.875
g360
I0
tp363
a(I169
I2
F0.75
S'easy'
p364
I363
tp365
a(I343
I0
F-0.5
g358
I363
tp366
a(I1932
I2
F1.0
S'good'
p367
I363
tp368
as(S'experience'
p369
tp370
(lp371
(I14
I41
I0
S'futuristic'
p372
I93
tp373
a(I831
I0
F1.0
S'good'
p374
I93
tp375
a(I1200
I0
F0.875
S'awesome'
p376
I93
tp377
a(I1625
I4
F0.875
S'nice'
p378
I93
tp379
a(I2269
I17
F0.25
S'recent'
p380
I93
tp381
a(I2355
I1
I0
S'android'
p382
I93
tp383
a(I2592
I0
F-0.625
S'new'
p384
I93
tp385
a(I2592
I1
F-0.625
S'new'
p386
I93
tp387
a(I2710
I5
I0
S'user'
p388
I93
tp389
as(S'u.'
p390
S's.'
p391
tp392
(lp393
(I2760
I1
I-100
S'u.'
p394
I0
tp395
as(S'review'
p396
S'text'
p397
S'works'
p398
tp399
(lp400
(I202
I0
F0.875
S'great'
p401
I0
tp402
a(I644
I0
I0
S'text'
p403
I0
tp404
a(I644
I0
F-0.75
S'delighted'
p405
I0
tp406
a(I2435
I0
F0.875
S'great'
p407
I0
tp408
a(I2312
I6
F0.125
S'amazon'
p409
I186
tp410
a(I2435
I0
F0.875
g407
I186
tp411
as(S'direct'
p412
S'line'
p413
tp414
(lp415
(I2028
I40
F0.75
S'direct'
p416
I3
tp417
a(I2028
I42
F0.75
S'direct'
p418
I3
tp419
a(I2028
I58
F0.75
S'direct'
p420
I3
tp421
as(S'fingerprint'
p422
S'reader'
p423
tp424
(lp425
(I2380
I12
F-0.125
S'next'
p426
I13
tp427
as(S'review'
p428
S'text'
p429
S'samsung'
p430
tp431
(lp432
(I135
I0
I0
S'many'
p433
I0
tp434
a(I169
I1
F1.0
S'good'
p435
I0
tp436
a(I169
I1
F0.125
S'dedicated'
p437
I0
tp438
a(I520
I0
F0.25
S'official'
p439
I0
tp440
a(I1355
I0
F1.0
S'best'
p441
I0
tp442
a(I1660
I0
F0.5
S'old'
p443
I0
tp444
a(I1782
I0
F0.875
S'great'
p445
I0
tp446
a(I2327
I1
F0.5
S'old'
p447
I0
tp448
a(I2609
I0
I0
S'big'
p449
I0
tp450
a(I2655
I0
F0.625
S'interested'
p451
I0
tp452
a(I63
I2
F-0.5
S'unlocked'
p453
I70
tp454
a(I115
I0
F-0.875
S'terrible'
p455
I70
tp456
a(I135
I0
I0
g433
I70
tp457
a(I169
I0
F0.125
S'dedicated'
p458
I70
tp459
a(I169
I1
F0.125
g437
I70
tp460
a(I364
I44
F-0.125
S'overall'
p461
I70
tp462
a(I520
I0
F0.25
g439
I70
tp463
a(I1292
I2
F0.375
S'registered'
p464
I70
tp465
a(I1316
I3
F0.625
S'pushy'
p466
I70
tp467
a(I1354
I0
F1.0
S'best'
p468
I70
tp469
a(I1355
I0
F1.0
g441
I70
tp470
a(I1660
I0
F0.5
g443
I70
tp471
a(I1782
I0
F0.875
g445
I70
tp472
a(I1979
I9
F-0.625
S'last'
p473
I70
tp474
a(I2028
I9
F-0.5
S'frustrated'
p475
I70
tp476
a(I2217
I4
F-0.625
S'other'
p477
I70
tp478
a(I2251
I2
F-0.625
S'last'
p479
I70
tp480
a(I2269
I1
I0
S'many'
p481
I70
tp482
a(I2316
I10
I0
S's'
p483
I70
tp484
a(I2316
I14
I0
S'least'
p485
I70
tp486
a(I2322
I0
F0.875
S'great'
p487
I70
tp488
a(I2327
I1
F0.5
g447
I70
tp489
a(I2351
I5
I0
S'faithful'
p490
I70
tp491
a(I2522
I5
I0
S'more'
p492
I70
tp493
a(I2609
I0
I0
g449
I70
tp494
a(I2627
I4
F-0.875
S'low'
p495
I70
tp496
a(I2627
I32
I0
S's'
p497
I70
tp498
a(I2627
I41
I0
S's'
p499
I70
tp500
a(I2627
I86
F-0.875
S'wrong'
p501
I70
tp502
as(S'review'
p503
S'header'
p504
S'awesome'
p505
tp506
(lp507
(I94
I0
F0.875
S'great'
p508
I0
tp509
as(S'sim'
p510
S'card'
p511
tp512
(lp513
(I2323
I2
I0
S'different'
p514
I40
tp515
a(I2327
I5
F-0.25
S'micro'
p516
I40
tp517
a(I2592
I1
I-100
S'carribean'
p518
I40
tp519
a(I2592
I1
F0.875
S'happy'
p520
I40
tp521
as(S'edge'
p522
tp523
(lp524
(I2217
I9
I0
S't'
p525
I132
tp526
a(I2330
I4
I0
S'screen'
p527
I132
tp528
a(I2330
I4
F0.5
S'susceptible'
p529
I132
tp530
a(I2351
I6
I0
S'stunning'
p531
I132
tp532
a(I2627
I52
F0.75
S'easier'
p533
I132
tp534
as(S'maple'
p535
S'gold'
p536
tp537
(lp538
(I563
I0
I0
S'maple'
p539
I3
tp540
a(I563
I0
F0.75
S'gorgeous'
p541
I3
tp542
as(S'stars'
p543
tp544
(lp545
(I245
I4
F-0.75
S'little'
p546
I53
tp547
a(I245
I4
F-0.875
S'tough'
p548
I53
tp549
as(S'galaxy'
p550
S's8'
p551
tp552
(lp553
(I143
I0
F0.75
S'easy'
p554
I11
tp555
a(I600
I0
F-0.625
S'fragile'
p556
I11
tp557
a(I2307
I2
I0
S'screen'
p558
I11
tp559
a(I2316
I3
F-1.0
S'worst'
p560
I11
tp561
a(I2351
I1
I0
S'galaxy'
p562
I11
tp563
a(I2384
I3
F-0.625
S'last'
p564
I11
tp565
as(S'very'
p566
S'good'
p567
S'review'
p568
tp569
(lp570
(I708
I0
I0
S'text'
p571
I0
tp572
a(I822
I0
I0
S'text'
p573
I0
tp574
a(I822
I0
F0.375
S'sleek'
p575
I0
tp576
a(I831
I0
I0
S'text'
p577
I0
tp578
a(I841
I0
I0
S'text'
p579
I0
tp580
a(I841
I0
F1.0
S'good'
p581
I0
tp582
a(I1496
I0
I0
S'text'
p583
I0
tp584
a(I1691
I0
I0
S'text'
p585
I0
tp586
a(I1691
I0
F1.0
S'good'
p587
I0
tp588
a(I1738
I0
I0
S'text'
p589
I0
tp590
a(I1738
I0
F0.875
S'nice'
p591
I0
tp592
a(I1865
I0
I0
S'text'
p593
I0
tp594
a(I2033
I0
I0
S'text'
p595
I0
tp596
a(I2033
I0
F1.0
S'good'
p597
I0
tp598
a(I2097
I0
I0
S'text'
p599
I0
tp600
a(I2137
I0
I0
S'text'
p601
I0
tp602
a(I2137
I0
F1.0
S'good'
p603
I0
tp604
a(I139
I0
F1.0
S'good'
p605
I0
tp606
a(I680
I0
F1.0
S'good'
p607
I0
tp608
a(I708
I0
I0
g571
I0
tp609
a(I822
I0
I0
g573
I0
tp610
a(I831
I0
I0
g577
I0
tp611
a(I841
I0
I0
g579
I0
tp612
a(I841
I0
F1.0
g581
I0
tp613
a(I1496
I0
I0
g583
I0
tp614
a(I1551
I0
F1.0
S'good'
p615
I0
tp616
a(I1691
I0
I0
g585
I0
tp617
a(I1691
I0
F1.0
g587
I0
tp618
a(I1738
I0
I0
g589
I0
tp619
a(I1865
I0
I0
g593
I0
tp620
a(I2033
I0
I0
g595
I0
tp621
a(I2033
I0
F1.0
g597
I0
tp622
a(I2097
I0
I0
g599
I0
tp623
a(I2137
I0
I0
g601
I0
tp624
a(I2137
I0
F1.0
g603
I0
tp625
as(S'international'
p626
S'version'
p627
tp628
(lp629
(I28
I0
F-0.5
S'unlocked'
p630
I11
tp631
a(I28
I0
F-0.5
S'international'
p632
I11
tp633
a(I63
I2
F-0.5
S'international'
p634
I11
tp635
a(I285
I2
F-0.5
S'international'
p636
I11
tp637
a(I827
I0
F-0.5
S'international'
p638
I11
tp639
a(I2075
I1
F-0.5
S'international'
p640
I11
tp641
a(I2075
I1
F-0.5
S'international'
p642
I11
tp643
a(I2323
I2
F-0.5
S'international'
p644
I11
tp645
a(I28
I0
F-0.5
g630
I112
tp646
a(I28
I0
F-0.5
g632
I112
tp647
a(I63
I2
F-0.5
g634
I112
tp648
a(I135
I0
I0
S'italian'
p649
I112
tp650
a(I165
I1
F-0.5
S'unlocked'
p651
I112
tp652
a(I285
I2
F-0.5
g636
I112
tp653
a(I347
I0
F-0.5
S'unlocked'
p654
I112
tp655
a(I827
I0
F-0.5
g638
I112
tp656
a(I2075
I1
F-0.5
g640
I112
tp657
a(I2075
I1
F-0.5
g642
I112
tp658
a(I2278
I3
F-0.5
S'unlocked'
p659
I112
tp660
a(I2323
I2
F-0.5
g644
I112
tp661
a(I2627
I34
F1.0
S'good'
p662
I112
tp663
as(S'a'
p664
S'screen'
p665
S'protector'
p666
tp667
(lp668
(I600
I1
I0
S'screen'
p669
I17
tp670
a(I2281
I37
F-0.75
S'impossible'
p671
I17
tp672
a(I2411
I1
F0.5
S'vulnerable'
p673
I17
tp674
a(I2411
I1
F1.0
S'good'
p675
I17
tp676
a(I2412
I0
F0.5
S'vulnerable'
p677
I17
tp678
a(I2412
I0
F1.0
S'good'
p679
I17
tp680
a(I2475
I0
F1.0
S'good'
p681
I17
tp682
a(I2476
I3
F1.0
S'good'
p683
I17
tp684
a(I2605
I2
F-0.25
S'bubble'
p685
I17
tp686
a(I2605
I2
F1.0
S'good'
p687
I17
tp688
a(I2605
I2
F0.5
S'sturdy'
p689
I17
tp690
a(I2605
I2
F-0.75
S'difficult'
p691
I17
tp692
a(I2643
I1
I0
S'screen'
p693
I17
tp694
a(I2643
I1
F-1.0
S'bad'
p695
I17
tp696
a(I600
I1
I0
g669
I51
tp697
a(I1333
I3
I-100
S'rhe'
p698
I51
tp699
a(I2281
I37
F-0.75
g671
I51
tp700
a(I2411
I1
F0.5
g673
I51
tp701
a(I2411
I1
F1.0
g675
I51
tp702
a(I2412
I0
F0.5
g677
I51
tp703
a(I2412
I0
F1.0
g679
I51
tp704
a(I2475
I0
F1.0
g681
I51
tp705
a(I2476
I3
F1.0
g683
I51
tp706
a(I2605
I2
F-0.25
g685
I51
tp707
a(I2605
I2
F1.0
g687
I51
tp708
a(I2605
I2
F0.5
g689
I51
tp709
a(I2605
I2
F-0.75
g691
I51
tp710
a(I2643
I1
I0
g693
I51
tp711
a(I2643
I1
F-1.0
g695
I51
tp712
as(S'product'
p713
S'review'
p714
tp715
(lp716
(I878
I0
F-0.625
S'new'
p717
I2
tp718
a(I903
I0
I0
S'text'
p719
I2
tp720
a(I903
I0
F1.0
S'excellent'
p721
I2
tp722
a(I1020
I0
I0
S'text'
p723
I2
tp724
a(I1056
I0
I0
S'text'
p725
I2
tp726
a(I1056
I0
F1.0
S'excellent'
p727
I2
tp728
a(I1388
I0
F0.125
S'sooner'
p729
I2
tp730
a(I1664
I0
F0.75
S'beautiful'
p731
I2
tp732
a(I1828
I0
I-100
S'ud83d'
p733
I2
tp734
a(I1983
I0
I0
S'text'
p735
I2
tp736
a(I1983
I0
F1.0
S'excellent'
p737
I2
tp738
a(I2097
I0
I0
g599
I2
tp739
a(I2097
I0
F1.0
S'good'
p740
I2
tp741
a(I2154
I0
I0
S'described'
p742
I2
tp743
a(I2302
I0
F-0.625
S'unfinished'
p744
I2
tp745
a(I360
I3
F-0.636
S'genuine'
p746
I408
tp747
a(I473
I2
F-0.625
S'fast'
p748
I408
tp749
a(I473
I2
F0.625
S'reliable'
p750
I408
tp751
a(I634
I1
F1.0
S'good'
p752
I408
tp753
a(I878
I0
F-0.625
g717
I408
tp754
a(I903
I0
F1.0
g721
I408
tp755
a(I1056
I0
F1.0
g727
I408
tp756
a(I1388
I0
F0.125
g729
I408
tp757
a(I1664
I0
F0.75
g731
I408
tp758
a(I1983
I0
F1.0
g737
I408
tp759
a(I2097
I0
F1.0
g740
I408
tp760
a(I2154
I0
I0
g742
I408
tp761
a(I2302
I0
F-0.625
g744
I408
tp762
a(I2367
I2
I0
S't'
p763
I408
tp764
as(S'review'
p765
S'text'
p766
S'was'
p767
tp768
(lp769
(I121
I1
F-0.625
S'nervous'
p770
I0
tp771
a(I169
I1
F1.0
g435
I0
tp772
a(I360
I1
I0
S'text'
p773
I0
tp774
a(I586
I0
I0
S'sceptical'
p775
I0
tp776
a(I836
I0
I0
S'text'
p777
I0
tp778
as(S'fast'
p779
tp780
(lp781
(I124
I6
F0.625
S'reliable'
p782
I241
tp783
a(I142
I0
F0.875
S'nice'
p784
I241
tp785
a(I2281
I20
F-0.125
S'understatement'
p786
I241
tp787
as(S'happy'
p788
S'with'
p789
S'purchase'
p790
tp791
(lp792
(I586
I1
F0.875
S'happy'
p793
I1
tp794
a(I1769
I2
F0.875
S'happy'
p795
I1
tp796
as(S'metro'
p797
S'pcs'
p798
tp799
(lp800
(I63
I0
F-0.5
S'unlocked'
p801
I7
tp802
a(I2327
I4
F0.875
S'happy'
p803
I7
tp804
a(I2327
I4
I0
S'local'
p805
I7
tp806
as(S'review'
p807
S'text'
p808
S'awesome'
p809
tp810
(lp811
(I95
I0
F0.875
S'great'
p812
I0
tp813
a(I703
I0
F0.875
S'awesome'
p814
I0
tp815
a(I1422
I0
I0
S'more'
p816
I0
tp817
a(I94
I0
F0.875
g508
I89
tp818
a(I95
I0
F0.875
g812
I89
tp819
as(S'price'
p820
tp821
(lp822
(I364
I46
F0.875
S'decent'
p823
I410
tp824
a(I442
I0
F1.0
S'good'
p825
I410
tp826
a(I524
I0
F0.875
S'great'
p827
I410
tp828
a(I1056
I0
F0.875
S'great'
p829
I410
tp830
a(I2273
I10
F-0.375
S'same'
p831
I410
tp832
a(I2430
I0
F0.75
S'fair'
p833
I410
tp834
a(I2431
I11
F1.0
S'good'
p835
I410
tp836
a(I2465
I1
F-0.875
S'low'
p837
I410
tp838
a(I2627
I0
F0.375
S'full'
p839
I410
tp840
a(I2627
I0
I0
S'retail'
p841
I410
tp842
a(I2627
I86
I0
S't'
p843
I410
tp844
as(S'service'
p845
tp846
(lp847
(I465
I0
F1.0
S'better'
p848
I100
tp849
a(I1329
I2
F0.875
S'great'
p850
I100
tp851
a(I2028
I60
F-0.625
S'horrible'
p852
I100
tp853
a(I2028
I64
F-0.875
S'poor'
p854
I100
tp855
a(I2109
I1
F-0.875
S'incompatible'
p856
I100
tp857
a(I2575
I0
F-0.625
S'non'
p858
I100
tp859
as(S'need'
p860
tp861
(lp862
(I14
I36
F-0.625
S'wide'
p863
I214
tp864
as(S'fingerprint'
p865
S'scanner'
p866
tp867
(lp868
(I182
I4
I0
S'biggest'
p869
I26
tp870
a(I2213
I14
F-0.75
S'inconvenient'
p871
I26
tp872
a(I2659
I3
F0.75
S'easy'
p873
I26
tp874
a(I182
I4
I0
g869
I82
tp875
a(I1268
I2
F0.375
S'scan'
p876
I82
tp877
as(S'buy'
p878
S'review'
p879
S'text'
p880
tp881
(lp882
(I121
I1
F-0.625
g770
I0
tp883
a(I2431
I0
I0
S't'
p884
I0
tp885
as(S'features'
p886
tp887
(lp888
(I124
I2
I0
S'more'
p889
I192
tp890
a(I143
I3
F0.875
S'great'
p891
I192
tp892
a(I312
I1
F0.875
S'great'
p893
I192
tp894
a(I364
I39
I0
S'few'
p895
I192
tp896
a(I699
I3
I0
S'many'
p897
I192
tp898
a(I699
I3
I0
S'useful'
p899
I192
tp900
a(I2217
I0
F1.0
S'good'
p901
I192
tp902
a(I2217
I0
F-1.0
S'bad'
p903
I192
tp904
a(I2312
I1
F-0.75
S'little'
p905
I192
tp906
a(I2312
I1
F0.875
S'awesome'
p907
I192
tp908
a(I2319
I7
I-100
S'gimmicky'
p909
I192
tp910
a(I2319
I7
F-0.125
S'such'
p911
I192
tp912
as(S'bixby'
p913
tp914
(lp915
(I14
I65
F-0.625
S'useless'
p916
I46
tp917
a(I84
I5
F-0.625
S'useless'
p918
I46
tp919
a(I147
I3
F-0.75
S'unable'
p920
I46
tp921
a(I147
I3
F-0.375
S'disable'
p922
I46
tp923
a(I456
I7
I0
S'unnecessary'
p924
I46
tp925
a(I456
I13
I0
S't'
p926
I46
tp927
a(I1417
I0
F-0.625
S'last'
p928
I46
tp929
a(I1417
I0
F-0.5
S'long'
p930
I46
tp931
a(I2312
I8
F0.125
S'dedicated'
p932
I46
tp933
a(I2316
I11
F-0.625
S'useless'
p934
I46
tp935
a(I2316
I11
F-0.375
S'disable'
p936
I46
tp937
a(I2373
I4
F-0.5
S'disappointed'
p938
I46
tp939
a(I2373
I4
F-0.375
S'half'
p940
I46
tp941
a(I2373
I9
F0.5
S'like'
p942
I46
tp943
a(I2373
I12
F0.25
S'able'
p944
I46
tp945
a(I2407
I4
I0
S'frequently'
p946
I46
tp947
a(I2419
I0
F-0.5
S'intrusive'
p948
I46
tp949
as(S'glass'
p950
tp951
(lp952
(I1333
I5
I0
S'curved'
p953
I109
tp954
a(I1747
I0
I0
S'tempered'
p955
I109
tp956
a(I2225
I3
F0.375
S'much'
p957
I109
tp958
a(I2306
I0
F-0.5
S'broken'
p959
I109
tp960
a(I2307
I5
F-0.125
S'back'
p961
I109
tp962
a(I2351
I4
F0.5
S'careful'
p963
I109
tp964
a(I2351
I4
F0.75
S'due'
p965
I109
tp966
a(I2351
I4
F0.375
S'full'
p967
I109
tp968
a(I2401
I0
F-0.5
S'breakable'
p969
I109
tp970
a(I2402
I1
F-0.5
S'breakable'
p971
I109
tp972
a(I2476
I5
I-100
S'othere'
p973
I109
tp974
a(I2476
I5
F-0.625
S'non'
p975
I109
tp976
as(S'review'
p977
S'header'
p978
S'excellent'
p979
tp980
(lp981
(I229
I0
F0.5
S'dual'
p982
I0
tp983
as(S'design'
p984
tp985
(lp986
(I2213
I4
I0
S'current'
p987
I88
tp988
a(I2213
I6
F-1.0
S'worst'
p989
I88
tp990
a(I2213
I8
F1.0
S'good'
p991
I88
tp992
a(I2380
I7
F0.375
S'feasible'
p993
I88
tp994
a(I2627
I16
I0
S'screen'
p995
I88
tp996
as(S'android'
p997
tp998
(lp999
(I14
I19
F-0.625
S'new'
p1000
I62
tp1001
a(I115
I12
F0.25
S'basic'
p1002
I62
tp1003
a(I174
I3
F0.75
S'perfect'
p1004
I62
tp1005
a(I241
I1
F0.875
S'happy'
p1006
I62
tp1007
a(I456
I10
F-0.125
S'overall'
p1008
I62
tp1009
a(I456
I10
F1.0
S'best'
p1010
I62
tp1011
a(I658
I0
F0.875
S'awesome'
p1012
I62
tp1013
a(I822
I0
F1.0
S'good'
p1014
I62
tp1015
a(I2319
I22
F-0.625
S'other'
p1016
I62
tp1017
as(S'text'
p1018
S'good'
p1019
S'review'
p1020
tp1021
(lp1022
(I139
I0
F1.0
g605
I0
tp1023
a(I169
I1
F1.0
g435
I0
tp1024
a(I303
I0
F1.0
S'good'
p1025
I0
tp1026
a(I680
I0
F1.0
g607
I0
tp1027
a(I708
I0
I0
g571
I0
tp1028
a(I822
I0
I0
g573
I0
tp1029
a(I831
I0
I0
g577
I0
tp1030
a(I841
I0
I0
g579
I0
tp1031
a(I841
I0
F1.0
g581
I0
tp1032
a(I1190
I0
F1.0
S'good'
p1033
I0
tp1034
a(I1254
I0
F1.0
S'good'
p1035
I0
tp1036
a(I1496
I0
I0
g583
I0
tp1037
a(I1551
I0
F1.0
g615
I0
tp1038
a(I1600
I0
F1.0
S'good'
p1039
I0
tp1040
a(I1672
I0
F1.0
S'good'
p1041
I0
tp1042
a(I1691
I0
I0
g585
I0
tp1043
a(I1691
I0
F1.0
g587
I0
tp1044
a(I1738
I0
I0
g589
I0
tp1045
a(I1865
I0
I0
g593
I0
tp1046
a(I2033
I0
I0
g595
I0
tp1047
a(I2033
I0
F1.0
g597
I0
tp1048
a(I2097
I0
I0
g599
I0
tp1049
a(I2137
I0
I0
g601
I0
tp1050
a(I2137
I0
F1.0
g603
I0
tp1051
a(I2186
I0
F1.0
S'good'
p1052
I0
tp1053
as(S'review'
p1054
S'header'
p1055
g664
tp1056
(lp1057
(I118
I0
F0.5
S'compatible'
p1058
I0
tp1059
a(I121
I0
F-0.625
S'nervous'
p1060
I0
tp1061
a(I169
I0
F1.0
S'good'
p1062
I0
tp1063
a(I315
I0
F-0.625
S'real'
p1064
I0
tp1065
a(I419
I0
F1.0
S'good'
p1066
I0
tp1067
a(I585
I0
F0.875
S'happy'
p1068
I0
tp1069
a(I630
I0
F0.625
S'first'
p1070
I0
tp1071
a(I679
I0
F1.0
S'good'
p1072
I0
tp1073
a(I926
I0
F0.875
S'great'
p1074
I0
tp1075
a(I1253
I0
F1.0
S'good'
p1076
I0
tp1077
a(I1301
I0
I0
S'advertised'
p1078
I0
tp1079
a(I1550
I0
F0.875
S'great'
p1080
I0
tp1081
a(I1652
I0
F0.75
S'beautiful'
p1082
I0
tp1083
a(I1781
I0
F0.875
S'great'
p1084
I0
tp1085
a(I1838
I0
F1.0
S'good'
p1086
I0
tp1087
a(I2100
I0
F0.875
S'great'
p1088
I0
tp1089
a(I2194
I0
F1.0
S'good'
p1090
I0
tp1091
a(I2406
I0
F-0.5
S'several'
p1092
I0
tp1093
a(I2494
I0
F-1.0
S'bad'
p1094
I0
tp1095
a(I2553
I0
F0.875
S'simple'
p1096
I0
tp1097
a(I2601
I0
F0.875
S'great'
p1098
I0
tp1099
a(I2691
I0
F0.5
S'dual'
p1100
I0
tp1101
a(I2709
I0
F-0.5
S'disappointed'
p1102
I0
tp1103
as(S'star'
p1104
S'review'
p1105
S'text'
p1106
tp1107
(lp1108
(I139
I0
F1.0
g605
I0
tp1109
a(I139
I0
F1.0
g605
I2
tp1110
as(S'thing'
p1111
tp1112
(lp1113
(I115
I10
F-0.375
S'same'
p1114
I683
tp1115
a(I121
I4
F-0.625
S'real'
p1116
I683
tp1117
a(I198
I0
F1.0
S'good'
p1118
I683
tp1119
a(I256
I0
F-1.0
S'bad'
p1120
I683
tp1121
a(I364
I11
F0.75
S'whole'
p1122
I683
tp1123
a(I364
I30
F-1.0
S'worst'
p1124
I683
tp1125
a(I364
I31
I0
S'standard'
p1126
I683
tp1127
a(I1268
I1
F0.875
S'amazing'
p1128
I683
tp1129
a(I1470
I12
F0.875
S'important'
p1130
I683
tp1131
a(I2247
I0
F-0.625
S'useless'
p1132
I683
tp1133
a(I2248
I1
F-0.625
S'useless'
p1134
I683
tp1135
a(I2312
I8
F-0.5
S'annoying'
p1136
I683
tp1137
a(I2373
I9
F0.875
S'important'
p1138
I683
tp1139
a(I2415
I6
F-0.5
S'slow'
p1140
I683
tp1141
a(I2531
I5
F-1.0
S'worse'
p1142
I683
tp1143
a(I2605
I3
F0.5
S'ascetic'
p1144
I683
tp1145
a(I2720
I6
I0
S'darn'
p1146
I683
tp1147
as(S'beautiful'
p1148
tp1149
(lp1150
(I2627
I30
F0.5
S'concerned'
p1151
I105
tp1152
a(I2627
I30
I0
S'big'
p1153
I105
tp1154
as(S'ud83d'
p1155
S'udc4d'
p1156
tp1157
(lp1158
(I1724
I0
I-100
S'udc4d'
p1159
I0
tp1160
as(S'work'
p1161
tp1162
(lp1163
(I135
I0
F0.625
S'first'
p1164
I611
tp1165
a(I364
I34
I0
S't'
p1166
I611
tp1167
a(I515
I0
F0.625
S'truly'
p1168
I611
tp1169
a(I2323
I2
I0
S'needing'
p1170
I611
tp1171
a(I2327
I21
I0
S't'
p1172
I611
tp1173
a(I2330
I4
I0
S't'
p1174
I611
tp1175
a(I2363
I2
I0
S't'
p1176
I611
tp1177
as(S'protector'
p1178
S'and'
p1179
S'case'
p1180
tp1181
(lp1182
(I600
I1
I0
g669
I4
tp1183
a(I2643
I1
I0
g693
I4
tp1184
a(I280
I4
I0
S'protective'
p1185
I185
tp1186
a(I576
I0
F0.625
S'cute'
p1187
I185
tp1188
a(I600
I7
I0
S'protective'
p1189
I185
tp1190
a(I2101
I6
F-0.75
S'difficult'
p1191
I185
tp1192
a(I2225
I2
F1.0
S'good'
p1193
I185
tp1194
a(I2260
I1
F0.625
S'fine'
p1195
I185
tp1196
a(I2384
I6
I0
S'clear'
p1197
I185
tp1198
as(S'battery'
p1199
S'life'
p1200
tp1201
(lp1202
(I14
I77
F-0.25
S'battery'
p1203
I117
tp1204
a(I115
I14
F-0.875
S'terrible'
p1205
I117
tp1206
a(I364
I1
F1.0
S'good'
p1207
I117
tp1208
a(I2101
I3
F0.875
S'great'
p1209
I117
tp1210
a(I2260
I7
F0.875
S'great'
p1211
I117
tp1212
a(I2278
I9
F0.875
S'great'
p1213
I117
tp1214
a(I2431
I3
F0.875
S'great'
p1215
I117
tp1216
a(I2521
I0
F0.5
S'expensive'
p1217
I117
tp1218
a(I2521
I0
F-0.875
S'hard'
p1219
I117
tp1220
a(I2522
I0
F-0.875
S'hard'
p1221
I117
tp1222
a(I14
I77
F-0.25
g1203
I194
tp1223
a(I44
I1
F0.75
S'whole'
p1224
I194
tp1225
a(I45
I2
F0.75
S'whole'
p1226
I194
tp1227
a(I115
I14
F-0.875
g1205
I194
tp1228
a(I364
I1
F1.0
g1207
I194
tp1229
a(I2101
I3
F0.875
g1209
I194
tp1230
a(I2323
I3
F0.75
S'easier'
p1231
I194
tp1232
a(I2431
I4
F-0.625
S'real'
p1233
I194
tp1234
a(I2521
I0
F0.5
g1217
I194
tp1235
a(I2521
I0
F-0.875
g1219
I194
tp1236
a(I2522
I0
F-0.875
g1221
I194
tp1237
a(I2572
I3
I0
S'different'
p1238
I194
tp1239
a(I124
I5
F0.875
S'simple'
p1240
I280
tp1241
a(I124
I5
F1.0
S'good'
p1242
I280
tp1243
a(I2164
I0
F-0.875
S'poor'
p1244
I280
tp1245
a(I2190
I17
F1.0
S'good'
p1246
I280
tp1247
a(I2260
I7
F0.875
g1211
I280
tp1248
a(I2273
I7
F0.375
S'ok'
p1249
I280
tp1250
a(I2273
I7
I0
S'quick'
p1251
I280
tp1252
a(I2278
I1
F-0.5
S'less'
p1253
I280
tp1254
a(I2278
I1
F-0.625
S'last'
p1255
I280
tp1256
a(I2278
I2
F-0.5
S'less'
p1257
I280
tp1258
a(I2278
I2
F-0.625
S'last'
p1259
I280
tp1260
a(I2278
I9
F0.875
g1213
I280
tp1261
a(I2431
I3
F0.875
g1215
I280
tp1262
a(I2706
I1
F0.25
S'special'
p1263
I280
tp1264
as(S'fake'
p1265
tp1266
(lp1267
(I1302
I0
F-0.75
S'likely'
p1268
I24
tp1269
as(S'review'
p1270
S'header'
p1271
S'screen'
p1272
tp1273
(lp1274
(I2475
I0
F1.0
g681
I0
tp1275
a(I118
I0
F0.5
g1058
I0
tp1276
a(I121
I0
F-0.625
g1060
I0
tp1277
a(I169
I0
F1.0
g1062
I0
tp1278
a(I315
I0
F-0.625
g1064
I0
tp1279
a(I419
I0
F1.0
g1066
I0
tp1280
a(I585
I0
F0.875
g1068
I0
tp1281
a(I630
I0
F0.625
g1070
I0
tp1282
a(I679
I0
F1.0
g1072
I0
tp1283
a(I926
I0
F0.875
g1074
I0
tp1284
a(I1253
I0
F1.0
g1076
I0
tp1285
a(I1301
I0
I0
g1078
I0
tp1286
a(I1550
I0
F0.875
g1080
I0
tp1287
a(I1652
I0
F0.75
g1082
I0
tp1288
a(I1781
I0
F0.875
g1084
I0
tp1289
a(I1838
I0
F1.0
g1086
I0
tp1290
a(I2100
I0
F0.875
g1088
I0
tp1291
a(I2194
I0
F1.0
g1090
I0
tp1292
a(I2406
I0
F-0.5
g1092
I0
tp1293
a(I2494
I0
F-1.0
g1094
I0
tp1294
a(I2553
I0
F0.875
g1096
I0
tp1295
a(I2601
I0
F0.875
g1098
I0
tp1296
a(I2691
I0
F0.5
g1100
I0
tp1297
a(I2709
I0
F-0.5
g1102
I0
tp1298
a(I4
I1
F-0.625
S'real'
p1299
I730
tp1300
a(I14
I13
F0.75
S'beautiful'
p1301
I730
tp1302
a(I91
I0
F-0.75
S'green'
p1303
I730
tp1304
a(I143
I2
F0.75
S'fantastic'
p1305
I730
tp1306
a(I237
I3
F0.75
S'whole'
p1307
I730
tp1308
a(I364
I5
I0
S'curved'
p1309
I730
tp1310
a(I367
I8
I0
S'beveled'
p1311
I730
tp1312
a(I473
I1
F0.75
S'beautiful'
p1313
I730
tp1314
a(I600
I4
F-0.625
S'wrecked'
p1315
I730
tp1316
a(I1369
I5
F-0.875
S'smaller'
p1317
I730
tp1318
a(I1434
I1
F-0.625
S'resistant'
p1319
I730
tp1320
a(I1796
I0
F-0.5
S'broken'
p1321
I730
tp1322
a(I2213
I3
F0.625
S'convenient'
p1323
I730
tp1324
a(I2213
I12
F-0.625
S'flat'
p1325
I730
tp1326
a(I2217
I15
F0.375
S'full'
p1327
I730
tp1328
a(I2243
I3
F0.5
S'larger'
p1329
I730
tp1330
a(I2278
I4
F-0.875
S'smaller'
p1331
I730
tp1332
a(I2281
I37
F-0.75
g671
I730
tp1333
a(I2302
I3
F0.875
S'amazing'
p1334
I730
tp1335
a(I2302
I13
F0.75
S'gorgeous'
p1336
I730
tp1337
a(I2302
I13
I0
S'u'
p1338
I730
tp1339
a(I2351
I2
F-0.375
S'cracked'
p1340
I730
tp1341
a(I2355
I1
F-0.75
S'impossible'
p1342
I730
tp1343
a(I2407
I1
I0
S'curved'
p1344
I730
tp1345
a(I2407
I2
F0.375
S'full'
p1346
I730
tp1347
a(I2411
I1
F0.5
g673
I730
tp1348
a(I2411
I1
F1.0
g675
I730
tp1349
a(I2412
I0
F0.5
g677
I730
tp1350
a(I2412
I0
F1.0
g679
I730
tp1351
a(I2431
I9
F0.75
S'outstanding'
p1352
I730
tp1353
a(I2431
I9
F-0.125
S'cant'
p1354
I730
tp1355
a(I2472
I4
F-0.625
S'fragile'
p1356
I730
tp1357
a(I2475
I0
F1.0
g681
I730
tp1358
a(I2476
I3
F1.0
g683
I730
tp1359
a(I2605
I2
F-0.25
g685
I730
tp1360
a(I2605
I2
F1.0
g687
I730
tp1361
a(I2605
I2
F0.5
g689
I730
tp1362
a(I2605
I8
F0.5
S'vulnerable'
p1363
I730
tp1364
a(I2627
I12
F0.375
S'foldable'
p1365
I730
tp1366
a(I2627
I13
F0.375
S'foldable'
p1367
I730
tp1368
a(I2627
I34
F1.0
S'best'
p1369
I730
tp1370
a(I2643
I1
F-1.0
g695
I730
tp1371
a(I2643
I4
I0
S'big'
p1372
I730
tp1373
a(I2710
I1
F0.5
S'touch'
p1374
I730
tp1375
as(S'back'
p1376
tp1377
(lp1378
(I2307
I8
F-0.25
S'disconnect'
p1379
I267
tp1380
as(S'curved'
p1381
S'screen'
p1382
tp1383
(lp1384
(I364
I5
I0
g1309
I23
tp1385
a(I2213
I12
F-0.625
g1325
I23
tp1386
a(I2281
I37
F-0.75
g671
I23
tp1387
a(I2407
I1
I0
g1344
I23
tp1388
a(I2627
I12
F0.375
g1365
I23
tp1389
a(I2627
I13
F0.375
g1367
I23
tp1390
as(S'straight'
p1391
S'talk'
p1392
tp1393
(lp1394
(I2023
I2
I0
S'straight'
p1395
I6
tp1396
as(S'reviews'
p1397
S'review'
p1398
tp1399
(lp1400
(I718
I8
I0
S'total'
p1401
I0
tp1402
a(I1446
I1
F0.25
S'verified'
p1403
I0
tp1404
a(I2023
I1
F-0.625
S'nervous'
p1405
I0
tp1406
a(I2023
I1
F0.75
S'due'
p1407
I0
tp1408
a(I2302
I2
I0
S'many'
p1409
I0
tp1410
a(I2302
I2
F0.375
S'depth'
p1411
I0
tp1412
a(I2302
I2
I0
S'ur'
p1413
I0
tp1414
a(I718
I8
I0
g1401
I467
tp1415
a(I1446
I1
F0.25
g1403
I467
tp1416
a(I2023
I1
F-0.625
g1405
I467
tp1417
a(I2023
I1
F0.75
g1407
I467
tp1418
a(I2302
I2
I0
g1409
I467
tp1419
a(I2302
I2
F0.375
g1411
I467
tp1420
a(I2302
I2
I0
g1413
I467
tp1421
as(S't.'
p1422
S'mobile'
p1423
tp1424
(lp1425
(I2720
I9
F0.375
S'principal'
p1426
I0
tp1427
as(S'ever'
p1428
S'review'
p1429
S'text'
p1430
tp1431
(lp1432
(I360
I1
I0
g773
I0
tp1433
a(I360
I1
I0
g773
I0
tp1434
as(S'seller'
p1435
tp1436
(lp1437
(I45
I6
F-0.875
S'upset'
p1438
I82
tp1439
a(I536
I2
F0.375
S'much'
p1440
I82
tp1441
a(I536
I2
F-0.875
S'cheaper'
p1442
I82
tp1443
a(I540
I1
F0.625
S'absurd'
p1444
I82
tp1445
as(S'review'
p1446
S'text'
p1447
S'amazing'
p1448
tp1449
(lp1450
(I1970
I0
I0
S'text'
p1451
I0
tp1452
a(I1234
I1
F1.0
S'good'
p1453
I179
tp1454
a(I1969
I0
F0.875
S'nice'
p1455
I179
tp1456
as(S'display'
p1457
tp1458
(lp1459
(I14
I45
I0
S'useful'
p1460
I151
tp1461
a(I115
I8
F0.5
S'possible'
p1462
I151
tp1463
a(I364
I20
F0.625
S'inconsequential'
p1464
I151
tp1465
a(I456
I0
F0.875
S'great'
p1466
I151
tp1467
a(I1393
I0
F0.875
S'amazing'
p1468
I151
tp1469
a(I1393
I0
F0.875
S'great'
p1470
I151
tp1471
a(I2190
I24
F0.75
S'beautiful'
p1472
I151
tp1473
a(I2281
I10
F1.0
S'best'
p1474
I151
tp1475
a(I2319
I21
I0
S't'
p1476
I151
tp1477
as(S'review'
p1478
S'text'
p1479
S'everything'
p1480
tp1481
(lp1482
(I338
I0
F1.0
S'good'
p1483
I0
tp1484
a(I630
I1
F0.625
S'fine'
p1485
I0
tp1486
a(I676
I0
F0.75
S'beautiful'
p1487
I0
tp1488
a(I1139
I0
F0.75
S'perfect'
p1489
I0
tp1490
a(I1329
I0
F0.875
S'happy'
p1491
I0
tp1492
a(I1625
I0
F0.375
S'ok'
p1493
I0
tp1494
a(I1653
I0
F0.75
S'beautiful'
p1495
I0
tp1496
a(I1714
I1
F0.875
S'great'
p1497
I0
tp1498
a(I1889
I0
F0.375
S'ok'
p1499
I0
tp1500
a(I338
I0
F1.0
g1483
I161
tp1501
a(I347
I0
I-100
S'workin'
p1502
I161
tp1503
a(I364
I27
F-0.5
S'slow'
p1504
I161
tp1505
a(I630
I1
F0.625
g1485
I161
tp1506
a(I676
I0
F0.75
g1487
I161
tp1507
a(I1139
I0
F0.75
g1489
I161
tp1508
a(I1173
I2
F0.875
S'amazing'
p1509
I161
tp1510
a(I1328
I0
F0.875
S'happy'
p1511
I161
tp1512
a(I1329
I0
F0.875
g1491
I161
tp1513
a(I1329
I1
F-0.875
S'blue'
p1514
I161
tp1515
a(I1329
I1
F0.875
S'nice'
p1516
I161
tp1517
a(I1447
I1
F1.0
S'good'
p1518
I161
tp1519
a(I1625
I0
F0.375
g1493
I161
tp1520
a(I1653
I0
F0.75
g1495
I161
tp1521
a(I1714
I0
F0.875
S'great'
p1522
I161
tp1523
a(I1714
I1
F0.875
g1497
I161
tp1524
a(I1889
I0
F0.375
g1499
I161
tp1525
a(I2168
I3
I0
S't'
p1526
I161
tp1527
a(I2281
I21
F-0.5
S'snappy'
p1528
I161
tp1529
a(I2431
I8
F-0.5
S'extra'
p1530
I161
tp1531
a(I2468
I7
F0.5
S'possible'
p1532
I161
tp1533
as(S'samsung'
p1534
S'galaxy'
p1535
tp1536
(lp1537
(I63
I2
F-0.5
g453
I4
tp1538
a(I169
I0
F0.125
g458
I4
tp1539
a(I169
I1
F0.125
g437
I4
tp1540
a(I1660
I0
F0.5
g443
I4
tp1541
a(I2327
I1
F0.5
g447
I4
tp1542
a(I2456
I2
F0.625
S'first'
p1543
I4
tp1544
a(I2627
I4
F-0.875
g495
I4
tp1545
a(I2627
I86
F-0.875
g501
I4
tp1546
a(I1979
I0
F-0.625
S'fragile'
p1547
I51
tp1548
a(I2312
I0
F0.5
S'old'
p1549
I51
tp1550
a(I2316
I3
F-1.0
g560
I51
tp1551
a(I2373
I3
F-0.625
S'other'
p1552
I51
tp1553
a(I2384
I2
F1.0
S'best'
p1554
I51
tp1555
a(I2384
I3
F-0.625
g564
I51
tp1556
a(I2456
I2
F0.625
g1543
I51
tp1557
as(S'perfect'
p1558
S'review'
p1559
tp1560
(lp1561
(I883
I0
F0.75
S'perfect'
p1562
I0
tp1563
a(I2373
I1
I0
S't'
p1564
I0
tp1565
a(I2373
I1
I0
g1564
I163
tp1566
as(S'text'
p1567
S'great'
p1568
S'review'
p1569
tp1570
(lp1571
(I202
I0
F0.875
g401
I0
tp1572
a(I524
I0
I0
S'text'
p1573
I0
tp1574
a(I761
I0
F0.875
g360
I0
tp1575
a(I942
I0
F0.875
S'great'
p1576
I0
tp1577
a(I957
I0
F0.875
S'great'
p1578
I0
tp1579
a(I1056
I0
I0
g725
I0
tp1580
a(I1129
I0
F0.875
S'great'
p1581
I0
tp1582
a(I1229
I0
F0.875
S'great'
p1583
I0
tp1584
a(I2402
I0
F-0.625
S'other'
p1585
I0
tp1586
a(I202
I0
F0.875
g401
I0
tp1587
a(I524
I0
I0
g1573
I0
tp1588
a(I761
I0
F0.875
g360
I0
tp1589
a(I942
I0
F0.875
g1576
I0
tp1590
a(I957
I0
F0.875
g1578
I0
tp1591
a(I1056
I0
I0
g725
I0
tp1592
a(I1129
I0
F0.875
g1581
I0
tp1593
a(I1229
I0
F0.875
g1583
I0
tp1594
a(I2402
I0
F-0.625
g1585
I0
tp1595
a(I202
I0
F0.875
g401
I0
tp1596
a(I761
I0
F0.875
g360
I0
tp1597
a(I942
I0
F0.875
g1576
I0
tp1598
a(I957
I0
F0.875
g1578
I0
tp1599
a(I1229
I0
F0.875
g1583
I0
tp1600
a(I2402
I0
F-0.625
g1585
I0
tp1601
a(I32
I0
F-0.5
S'unlocked'
p1602
I0
tp1603
a(I121
I1
F-0.625
g770
I0
tp1604
a(I139
I0
F1.0
g605
I0
tp1605
a(I169
I1
F1.0
g435
I0
tp1606
a(I202
I0
F0.875
g401
I0
tp1607
a(I303
I0
F1.0
g1025
I0
tp1608
a(I360
I1
I0
g773
I0
tp1609
a(I524
I0
I0
g1573
I0
tp1610
a(I644
I0
I0
g403
I0
tp1611
a(I644
I0
F-0.75
g405
I0
tp1612
a(I680
I0
F1.0
g607
I0
tp1613
a(I703
I0
F0.875
g814
I0
tp1614
a(I708
I0
I0
g571
I0
tp1615
a(I761
I0
F0.875
g360
I0
tp1616
a(I822
I0
I0
g573
I0
tp1617
a(I831
I0
I0
g577
I0
tp1618
a(I836
I0
I0
g777
I0
tp1619
a(I841
I0
I0
g579
I0
tp1620
a(I841
I0
F1.0
g581
I0
tp1621
a(I883
I0
F0.75
g1562
I0
tp1622
a(I903
I0
I0
g719
I0
tp1623
a(I942
I0
F0.875
g1576
I0
tp1624
a(I957
I0
F0.875
g1578
I0
tp1625
a(I1020
I0
I0
g723
I0
tp1626
a(I1056
I0
I0
g725
I0
tp1627
a(I1129
I0
F0.875
g1581
I0
tp1628
a(I1190
I0
F1.0
g1033
I0
tp1629
a(I1229
I0
F0.875
g1583
I0
tp1630
a(I1234
I0
I0
S'text'
p1631
I0
tp1632
a(I1254
I0
F1.0
g1035
I0
tp1633
a(I1316
I0
I0
S'text'
p1634
I0
tp1635
a(I1422
I0
I0
g816
I0
tp1636
a(I1451
I2
I0
S'text'
p1637
I0
tp1638
a(I1496
I0
I0
g583
I0
tp1639
a(I1547
I1
I0
S'text'
p1640
I0
tp1641
a(I1551
I0
F1.0
g615
I0
tp1642
a(I1600
I0
F1.0
g1039
I0
tp1643
a(I1668
I0
I0
S'hot'
p1644
I0
tp1645
a(I1672
I0
F1.0
g1041
I0
tp1646
a(I1691
I0
I0
g585
I0
tp1647
a(I1691
I0
F1.0
g587
I0
tp1648
a(I1738
I0
I0
g589
I0
tp1649
a(I1742
I0
F0.875
S'nice'
p1650
I0
tp1651
a(I1865
I0
I0
g593
I0
tp1652
a(I1970
I0
I0
g1451
I0
tp1653
a(I1983
I0
I0
g735
I0
tp1654
a(I2033
I0
I0
g595
I0
tp1655
a(I2033
I0
F1.0
g597
I0
tp1656
a(I2097
I0
I0
g599
I0
tp1657
a(I2137
I0
I0
g601
I0
tp1658
a(I2137
I0
F1.0
g603
I0
tp1659
a(I2150
I0
F0.875
S'happy'
p1660
I0
tp1661
a(I2186
I0
F1.0
g1052
I0
tp1662
a(I2651
I0
F-0.125
S'present'
p1663
I0
tp1664
a(I2655
I0
F0.625
g451
I0
tp1665
a(I2663
I0
F0.875
S'nice'
p1666
I0
tp1667
a(I2702
I0
I0
S'text'
p1668
I0
tp1669
a(I524
I0
I0
g1573
I0
tp1670
a(I1056
I0
I0
g725
I0
tp1671
a(I1129
I0
F0.875
g1581
I0
tp1672
a(I2402
I0
F-0.625
g1585
I0
tp1673
a(I2402
I0
F-0.625
g1585
I500
tp1674
as(S'to'
p1675
S'use'
p1676
S'review'
p1677
tp1678
(lp1679
(I799
I0
I0
S't'
p1680
I0
tp1681
a(I2281
I3
F-0.75
S'short'
p1682
I0
tp1683
as(S'text'
p1684
S'excellent'
p1685
S'review'
p1686
tp1687
(lp1688
(I903
I0
I0
g719
I0
tp1689
a(I1056
I0
I0
g725
I0
tp1690
a(I1983
I0
I0
g735
I0
tp1691
a(I903
I0
I0
g719
I0
tp1692
a(I1056
I0
I0
g725
I0
tp1693
a(I1983
I0
I0
g735
I0
tp1694
a(I229
I0
F0.5
g982
I0
tp1695
a(I903
I0
I0
g719
I0
tp1696
a(I1056
I0
I0
g725
I0
tp1697
a(I1983
I0
I0
g735
I0
tp1698
a(I229
I0
F0.5
g982
I70
tp1699
as(S'time'
p1700
tp1701
(lp1702
(I63
I8
F0.625
S'certain'
p1703
I389
tp1704
a(I84
I4
F-0.5
S'long'
p1705
I389
tp1706
a(I169
I1
F-0.875
S'hard'
p1707
I389
tp1708
a(I174
I2
F-0.375
S'loading'
p1709
I389
tp1710
a(I237
I0
I0
S'2nd'
p1711
I389
tp1712
a(I237
I1
I0
S'2nd'
p1713
I389
tp1714
a(I680
I1
F0.625
S'certain'
p1715
I389
tp1716
a(I1470
I11
F0.5
S'stable'
p1717
I389
tp1718
a(I2028
I6
F0.625
S'first'
p1719
I389
tp1720
a(I2028
I23
F-0.625
S'last'
p1721
I389
tp1722
a(I2028
I71
F-0.5
S'extra'
p1723
I389
tp1724
a(I2217
I18
F-0.375
S'same'
p1725
I389
tp1726
a(I2273
I6
I0
S'pro'
p1727
I389
tp1728
a(I2281
I30
I0
S'run'
p1729
I389
tp1730
a(I2281
I30
I0
S'more'
p1731
I389
tp1732
a(I2281
I30
I0
S'run'
p1733
I389
tp1734
a(I2327
I15
F0.375
S'full'
p1735
I389
tp1736
a(I2384
I5
F-0.5
S'long'
p1737
I389
tp1738
a(I2475
I0
F-0.875
S'hard'
p1739
I389
tp1740
a(I2476
I3
F-0.875
S'hard'
p1741
I389
tp1742
a(I2627
I16
F1.0
S'best'
p1743
I389
tp1744
a(I2643
I2
F0.625
S'fine'
p1745
I389
tp1746
a(I2643
I4
I0
S't'
p1747
I389
tp1748
as(S'review'
p1749
S'header'
p1750
S'amazing'
p1751
tp1752
(lp1753
(I1969
I0
F0.875
g1455
I0
tp1754
a(I2100
I0
F0.875
g1088
I0
tp1755
as(S'review'
p1756
S'text'
p1757
g664
tp1758
(lp1759
(I121
I1
F-0.625
g770
I0
tp1760
a(I139
I0
F1.0
g605
I0
tp1761
a(I169
I1
F1.0
g435
I0
tp1762
a(I202
I0
F0.875
g401
I0
tp1763
a(I303
I0
F1.0
g1025
I0
tp1764
a(I360
I1
I0
g773
I0
tp1765
a(I524
I0
I0
g1573
I0
tp1766
a(I644
I0
I0
g403
I0
tp1767
a(I644
I0
F-0.75
g405
I0
tp1768
a(I680
I0
F1.0
g607
I0
tp1769
a(I703
I0
F0.875
g814
I0
tp1770
a(I761
I0
F0.875
g360
I0
tp1771
a(I822
I0
I0
g573
I0
tp1772
a(I836
I0
I0
g777
I0
tp1773
a(I883
I0
F0.75
g1562
I0
tp1774
a(I942
I0
F0.875
g1576
I0
tp1775
a(I957
I0
F0.875
g1578
I0
tp1776
a(I1020
I0
I0
g723
I0
tp1777
a(I1056
I0
I0
g725
I0
tp1778
a(I1129
I0
F0.875
g1581
I0
tp1779
a(I1229
I0
F0.875
g1583
I0
tp1780
a(I1254
I0
F1.0
g1035
I0
tp1781
a(I1316
I0
I0
g1634
I0
tp1782
a(I1422
I0
I0
g816
I0
tp1783
a(I1496
I0
I0
g583
I0
tp1784
a(I1547
I1
I0
g1640
I0
tp1785
a(I1551
I0
F1.0
g615
I0
tp1786
a(I1668
I0
I0
g1644
I0
tp1787
a(I1738
I0
I0
g589
I0
tp1788
a(I1865
I0
I0
g593
I0
tp1789
a(I1970
I0
I0
g1451
I0
tp1790
a(I2097
I0
I0
g599
I0
tp1791
a(I2137
I0
I0
g601
I0
tp1792
a(I2137
I0
F1.0
g603
I0
tp1793
a(I2150
I0
F0.875
g1660
I0
tp1794
a(I2407
I0
F-0.125
S'huge'
p1795
I0
tp1796
a(I2651
I0
F-0.125
g1663
I0
tp1797
a(I2655
I0
F0.625
g451
I0
tp1798
a(I2702
I0
I0
g1668
I0
tp1799
as(S'working'
p1800
tp1801
(lp1802
(I1311
I0
F-0.375
S'stop'
p1803
I89
tp1804
as(S'timely'
p1805
S'manner'
p1806
tp1807
(lp1808
(I14
I19
I0
S'timely'
p1809
I5
tp1810
a(I836
I0
I0
S'timely'
p1811
I5
tp1812
a(I2028
I40
I0
S'timely'
p1813
I5
tp1814
as(S'customer'
p1815
tp1816
(lp1817
(I40
I1
I0
S'centric'
p1818
I58
tp1819
a(I115
I0
F-1.0
S'worst'
p1820
I58
tp1821
a(I115
I0
F-0.125
S'unknowledgeable'
p1822
I58
tp1823
a(I1292
I0
F0.125
S'become'
p1824
I58
tp1825
a(I1292
I0
F-0.75
S'impossible'
p1826
I58
tp1827
a(I2028
I5
F0.625
S'first'
p1828
I58
tp1829
a(I2028
I5
F-0.25
S'couple'
p1830
I58
tp1831
a(I2251
I4
F-0.625
S'useless'
p1832
I58
tp1833
as(S'camera'
p1834
tp1835
(lp1836
(I14
I2
F0.375
S'full'
p1837
I383
tp1838
a(I14
I36
F-0.625
S'wide'
p1839
I383
tp1840
a(I14
I47
I0
S'rear'
p1841
I383
tp1842
a(I14
I47
F1.0
S'excellent'
p1843
I383
tp1844
a(I193
I2
F0.875
S'great'
p1845
I383
tp1846
a(I252
I0
F-0.5
S'lose'
p1847
I383
tp1848
a(I351
I2
F1.0
S'good'
p1849
I383
tp1850
a(I364
I1
F0.5
S'second'
p1851
I383
tp1852
a(I456
I9
F-1.0
S'sorry'
p1853
I383
tp1854
a(I568
I1
F0.125
S'digital'
p1855
I383
tp1856
a(I581
I0
F0.875
S'great'
p1857
I383
tp1858
a(I581
I0
I-100
S'sooo'
p1859
I383
tp1860
a(I581
I0
F0.875
S'clean'
p1861
I383
tp1862
a(I639
I0
F0.875
S'amazing'
p1863
I383
tp1864
a(I1359
I0
F1.0
S'excellent'
p1865
I383
tp1866
a(I1360
I0
F1.0
S'excellent'
p1867
I383
tp1868
a(I1417
I0
F0.875
S'amazing'
p1869
I383
tp1870
a(I1625
I2
F0.75
S'perfect'
p1871
I383
tp1872
a(I1667
I0
F1.0
S'good'
p1873
I383
tp1874
a(I1668
I1
F1.0
S'good'
p1875
I383
tp1876
a(I1751
I1
I0
S'normal'
p1877
I383
tp1878
a(I1987
I0
I0
S'clear'
p1879
I383
tp1880
a(I1987
I3
F-0.625
S'real'
p1881
I383
tp1882
a(I1987
I3
I0
S'clear'
p1883
I383
tp1884
a(I2100
I0
F0.875
S'amazing'
p1885
I383
tp1886
a(I2101
I1
F0.875
S'amazing'
p1887
I383
tp1888
a(I2101
I1
F1.0
S'best'
p1889
I383
tp1890
a(I2273
I1
F1.0
S'best'
p1891
I383
tp1892
a(I2273
I2
F1.0
S'good'
p1893
I383
tp1894
a(I2278
I8
F1.0
S'good'
p1895
I383
tp1896
a(I2302
I6
F0.875
S'great'
p1897
I383
tp1898
a(I2302
I6
F1.0
S'best'
p1899
I383
tp1900
a(I2319
I27
F0.875
S'nice'
p1901
I383
tp1902
a(I2355
I2
F1.0
S'good'
p1903
I383
tp1904
a(I2355
I4
I0
S'own'
p1905
I383
tp1906
a(I2627
I21
F-0.375
S'same'
p1907
I383
tp1908
a(I2627
I23
F-0.625
S'new'
p1909
I383
tp1910
a(I2627
I29
F1.0
S'good'
p1911
I383
tp1912
a(I2627
I30
I0
S'most'
p1913
I383
tp1914
a(I2627
I79
I-100
S'instaneous'
p1915
I383
tp1916
a(I2627
I79
F0.5
S'second'
p1917
I383
tp1918
a(I2659
I3
F-0.375
S'same'
p1919
I383
tp1920
a(I2706
I1
F-0.625
S'real'
p1921
I383
tp1922
as(S'button'
p1923
tp1924
(lp1925
(I456
I7
F0.125
S'dedicated'
p1926
I202
tp1927
a(I456
I7
F-0.625
S'silent'
p1928
I202
tp1929
a(I2212
I0
F-1.0
S'bad'
p1930
I202
tp1931
a(I2260
I14
F-0.5
S'extra'
p1932
I202
tp1933
a(I2260
I15
I0
S't'
p1934
I202
tp1935
a(I2312
I9
F0.625
S'first'
p1936
I202
tp1937
a(I2312
I12
F0.125
S'dedicated'
p1938
I202
tp1939
a(I2312
I13
F-0.75
S'stupid'
p1940
I202
tp1941
a(I2312
I13
F-0.625
S'pointless'
p1942
I202
tp1943
a(I2407
I3
I0
S'own'
p1944
I202
tp1945
as(S'gold'
p1946
S'tone'
p1947
tp1948
(lp1949
(I2327
I31
F0.5
S'slight'
p1950
I3
tp1951
a(I2327
I32
F-0.125
S'gold'
p1952
I3
tp1953
as(S'money'
p1954
tp1955
(lp1956
(I2367
I2
I0
S'considerable'
p1957
I85
tp1958
a(I2605
I8
F-0.5
S'extra'
p1959
I85
tp1960
a(I2710
I6
F0.375
S'much'
p1961
I85
tp1962
as(S'think'
p1963
tp1964
(lp1965
(I2281
I35
F-0.75
S'single'
p1966
I108
tp1967
as(S'com'
p1968
S'product'
p1969
tp1970
(lp1971
(I2302
I0
F-0.625
g744
I0
tp1972
as(S'google'
p1973
S'pixel'
p1974
tp1975
(lp1976
(I1979
I3
F0.5
S'rid'
p1977
I3
tp1978
a(I2302
I0
F1.0
S'good'
p1979
I3
tp1980
a(I2302
I10
I0
S'big'
p1981
I3
tp1982
a(I14
I74
I-100
S'u2019t'
p1983
I32
tp1984
a(I1979
I3
F0.5
g1977
I32
tp1985
a(I2302
I10
I0
g1981
I32
tp1986
a(I2316
I13
F-1.0
S'worse'
p1987
I32
tp1988
as(S'device'
p1989
tp1990
(lp1991
(I63
I7
F0.875
S'great'
p1992
I245
tp1993
a(I1411
I0
I0
S'breath'
p1994
I245
tp1995
a(I1411
I0
F0.75
S'beautiful'
p1996
I245
tp1997
a(I1412
I1
I0
S'breath'
p1998
I245
tp1999
a(I1412
I1
F0.75
S'beautiful'
p2000
I245
tp2001
a(I2028
I71
F-0.75
S'defective'
p2002
I245
tp2003
a(I2255
I0
F0.875
S'awesome'
p2004
I245
tp2005
a(I2490
I2
F0.75
S'delightful'
p2006
I245
tp2007
a(I2717
I5
F0.25
S'able'
p2008
I245
tp2009
as(S'call'
p2010
tp2011
(lp2012
(I130
I0
I0
S'lazy'
p2013
I216
tp2014
a(I131
I0
I0
S'lazy'
p2015
I216
tp2016
a(I2028
I56
I0
S'initial'
p2017
I216
tp2018
a(I2281
I29
I0
S't'
p2019
I216
tp2020
a(I2575
I3
F-0.625
S'other'
p2021
I216
tp2022
as(S'low'
p2023
S'light'
p2024
tp2025
(lp2026
(I2526
I0
F-0.875
S'low'
p2027
I18
tp2028
as(S'review'
p2029
S'text'
p2030
S's'
p2031
tp2032
(lp2033
(I32
I0
F-0.5
g1602
I0
tp2034
a(I121
I1
F-0.625
g770
I0
tp2035
a(I139
I0
F1.0
g605
I0
tp2036
a(I169
I1
F1.0
g435
I0
tp2037
a(I202
I0
F0.875
g401
I0
tp2038
a(I360
I1
I0
g773
I0
tp2039
a(I644
I0
I0
g403
I0
tp2040
a(I644
I0
F-0.75
g405
I0
tp2041
a(I680
I0
F1.0
g607
I0
tp2042
a(I703
I0
F0.875
g814
I0
tp2043
a(I708
I0
I0
g571
I0
tp2044
a(I761
I0
F0.875
g360
I0
tp2045
a(I822
I0
I0
g573
I0
tp2046
a(I836
I0
I0
g777
I0
tp2047
a(I1020
I0
I0
g723
I0
tp2048
a(I1129
I0
F0.875
g1581
I0
tp2049
a(I1422
I0
I0
g816
I0
tp2050
a(I1496
I0
I0
g583
I0
tp2051
a(I1547
I1
I0
g1640
I0
tp2052
a(I1551
I0
F1.0
g615
I0
tp2053
a(I1668
I0
I0
g1644
I0
tp2054
a(I1742
I0
F0.875
g1650
I0
tp2055
a(I1865
I0
I0
g593
I0
tp2056
a(I2097
I0
I0
g599
I0
tp2057
a(I2137
I0
I0
g601
I0
tp2058
a(I2137
I0
F1.0
g603
I0
tp2059
a(I2150
I0
F0.875
g1660
I0
tp2060
a(I2186
I0
F1.0
g1052
I0
tp2061
a(I2651
I0
F-0.125
g1663
I0
tp2062
a(I2655
I0
F0.625
g451
I0
tp2063
as(S'apps'
p2064
tp2065
(lp2066
(I135
I0
I0
S'italian'
p2067
I192
tp2068
a(I2273
I3
F-0.625
S'other'
p2069
I192
tp2070
a(I2273
I9
F0.875
S'cleaner'
p2071
I192
tp2072
a(I2602
I4
I0
S'many'
p2073
I192
tp2074
a(I2602
I4
I0
S'many'
p2075
I192
tp2076
a(I2605
I7
F-0.375
S'same'
p2077
I192
tp2078
a(I2605
I7
F0.625
S'certain'
p2079
I192
tp2080
as(S'amazon'
p2081
tp2082
(lp2083
(I4
I3
I0
S'big'
p2084
I224
tp2085
a(I45
I7
F0.25
S'able'
p2086
I224
tp2087
a(I737
I0
F0.875
S'great'
p2088
I224
tp2089
a(I2748
I2
F-0.875
S'hard'
p2090
I224
tp2091
as(S'days'
p2092
tp2093
(lp2094
(I2028
I37
F0.375
S'full'
p2095
I113
tp2096
a(I2028
I46
F-0.5
S'regular'
p2097
I113
tp2098
a(I2243
I11
I0
S'few'
p2099
I113
tp2100
a(I2243
I11
F0.5
S'old'
p2101
I113
tp2102
a(I2281
I28
F-0.375
S'half'
p2103
I113
tp2104
a(I2302
I13
I0
S'most'
p2105
I113
tp2106
a(I2316
I6
I0
S'few'
p2107
I113
tp2108
a(I2316
I6
I0
S'more'
p2109
I113
tp2110
as.