(dp0
(S'face'
p1
tp2
(lp3
(I328
I11
I0
S'least'
p4
I88
tp5
as(S'iphone'
p6
S'x'
p7
S'review'
p8
tp9
(lp10
(I11
I62
F-0.625
S'new'
p11
I0
tp12
a(I132
I0
F1.0
S'best'
p13
I0
tp14
a(I386
I0
F0.5
S'functional'
p15
I0
tp16
a(I435
I1
F-0.125
S'back'
p17
I0
tp18
a(I435
I1
F-0.75
S'untrue'
p19
I0
tp20
a(I455
I0
F-0.625
S'buggy'
p21
I0
tp22
a(I480
I0
F-1.0
S'worst'
p23
I0
tp24
a(I555
I0
F-0.625
S'new'
p25
I0
tp26
a(I570
I0
F1.0
S'good'
p27
I0
tp28
as(S'battery'
p29
S'life'
p30
tp31
(lp32
(I11
I53
F0.5
S'largest'
p33
I117
tp34
a(I369
I28
F1.0
S'best'
p35
I117
tp36
a(I386
I15
I0
S'different'
p37
I117
tp38
a(I390
I4
F1.0
S'good'
p39
I117
tp40
a(I390
I4
I0
S'bigger'
p41
I117
tp42
a(I408
I9
F0.625
S'pleased'
p43
I117
tp44
a(I408
I10
F-0.5
S'long'
p45
I117
tp46
a(I438
I2
F0.875
S'great'
p47
I117
tp48
a(I287
I2
F0.5
S'entire'
p49
I194
tp50
a(I369
I28
F1.0
g35
I194
tp51
a(I386
I15
I0
g37
I194
tp52
a(I438
I2
F0.875
g47
I194
tp53
a(I462
I11
F0.75
S'whole'
p54
I194
tp55
a(I11
I53
F0.5
g33
I280
tp56
a(I390
I4
F1.0
g39
I280
tp57
a(I390
I4
I0
g41
I280
tp58
a(I408
I9
F0.625
g43
I280
tp59
a(I408
I10
F-0.5
g45
I280
tp60
as(S'worth'
p61
tp62
(lp63
(I403
I1
I-100
S'de3f'
p64
I85
tp65
a(I403
I1
I-100
S'netliy'
p66
I85
tp67
as(S'sim'
p68
S'card'
p69
tp70
(lp71
(I510
I8
I-100
S'nanosim'
p72
I40
tp73
as(S'screen'
p74
tp75
(lp76
(I11
I9
F0.625
S'vibrant'
p77
I730
tp78
a(I11
I9
I0
S'clear'
p79
I730
tp80
a(I11
I10
F0.5
S'larger'
p81
I730
tp82
a(I11
I23
I0
S'additional'
p83
I730
tp84
a(I11
I23
F-0.625
S'real'
p85
I730
tp86
a(I11
I67
F0.75
S'fantastic'
p87
I730
tp88
a(I142
I0
F0.875
S'great'
p89
I730
tp90
a(I214
I0
F-0.875
S'strong'
p91
I730
tp92
a(I214
I1
F-0.875
S'strong'
p93
I730
tp94
a(I328
I28
F0.875
S'amazing'
p95
I730
tp96
a(I328
I38
F0.5
S'larger'
p97
I730
tp98
a(I328
I39
F0.875
S'amazing'
p99
I730
tp100
a(I369
I17
I0
S'bigger'
p101
I730
tp102
a(I378
I6
F0.5
S'large'
p103
I730
tp104
a(I386
I5
I0
S'screen'
p105
I730
tp106
a(I386
I5
F0.625
S'fine'
p107
I730
tp108
a(I390
I6
F1.0
S'best'
p109
I730
tp110
a(I390
I8
F-0.625
S'wide'
p111
I730
tp112
a(I390
I8
F0.5
S'narrow'
p113
I730
tp114
a(I408
I5
F0.625
S'vibrant'
p115
I730
tp116
a(I408
I17
F0.5
S'entire'
p117
I730
tp118
a(I442
I3
I0
S'actual'
p119
I730
tp120
a(I510
I3
F-0.5
S'oleophobic'
p121
I730
tp122
as(S'url'
p123
S'http'
p124
S'www'
p125
tp126
(lp127
(I54
I0
I0
S'url'
p128
I0
tp129
a(I116
I0
I0
S'url'
p130
I0
tp131
a(I178
I0
I0
S'url'
p132
I0
tp133
a(I241
I0
I0
S'url'
p134
I0
tp135
a(I303
I0
I0
S'url'
p136
I0
tp137
a(I362
I0
I0
S'url'
p138
I0
tp139
a(I420
I0
I0
S'url'
p140
I0
tp141
a(I473
I0
I0
S'url'
p142
I0
tp143
a(I531
I0
I0
S'url'
p144
I0
tp145
a(I589
I0
I0
S'url'
p146
I0
tp147
a(I54
I0
I0
g128
I0
tp148
a(I116
I0
I0
g130
I0
tp149
a(I178
I0
I0
g132
I0
tp150
a(I241
I0
I0
g134
I0
tp151
a(I303
I0
I0
g136
I0
tp152
a(I362
I0
I0
g138
I0
tp153
a(I420
I0
I0
g140
I0
tp154
a(I473
I0
I0
g142
I0
tp155
a(I531
I0
I0
g144
I0
tp156
a(I589
I0
I0
g146
I0
tp157
a(I54
I0
I0
g128
I0
tp158
a(I116
I0
I0
g130
I0
tp159
a(I178
I0
I0
g132
I0
tp160
a(I241
I0
I0
g134
I0
tp161
a(I303
I0
I0
g136
I0
tp162
a(I362
I0
I0
g138
I0
tp163
a(I420
I0
I0
g140
I0
tp164
a(I473
I0
I0
g142
I0
tp165
a(I531
I0
I0
g144
I0
tp166
a(I589
I0
I0
g146
I0
tp167
a(I54
I0
I0
g128
I210
tp168
a(I116
I0
I0
g130
I210
tp169
a(I178
I0
I0
g132
I210
tp170
a(I241
I0
I0
g134
I210
tp171
a(I303
I0
I0
g136
I210
tp172
a(I362
I0
I0
g138
I210
tp173
a(I420
I0
I0
g140
I210
tp174
a(I473
I0
I0
g142
I210
tp175
a(I531
I0
I0
g144
I210
tp176
a(I589
I0
I0
g146
I210
tp177
as(S'everything'
p178
tp179
(lp180
(I328
I8
F0.75
S'easy'
p181
I161
tp182
as(S'features'
p183
tp184
(lp185
(I11
I8
F-0.625
S'other'
p186
I192
tp187
a(I11
I8
I0
S'main'
p188
I192
tp189
a(I11
I64
F-0.625
S'new'
p190
I192
tp191
a(I132
I0
F-0.625
S'new'
p192
I192
tp193
a(I442
I20
F0.375
S'full'
p194
I192
tp195
a(I442
I20
F-0.625
S'new'
p196
I192
tp197
a(I442
I20
I0
S'useful'
p198
I192
tp199
as(S'review'
p200
S'text'
p201
S'iphone'
p202
tp203
(lp204
(I132
I0
F1.0
g13
I0
tp205
a(I332
I0
F0.875
S'nice'
p206
I0
tp207
a(I386
I0
F0.5
g15
I0
tp208
a(I435
I1
F-0.125
g17
I0
tp209
a(I455
I0
F-0.625
g21
I0
tp210
a(I480
I0
F-1.0
g23
I0
tp211
a(I555
I0
F-0.625
g25
I0
tp212
a(I570
I0
F1.0
g27
I0
tp213
a(I132
I0
F1.0
g13
I0
tp214
a(I332
I0
F0.875
g206
I0
tp215
a(I386
I0
F0.5
g15
I0
tp216
a(I435
I1
F-0.125
g17
I0
tp217
a(I455
I0
F-0.625
g21
I0
tp218
a(I480
I0
F-1.0
g23
I0
tp219
a(I555
I0
F-0.625
g25
I0
tp220
a(I570
I0
F1.0
g27
I0
tp221
a(I11
I62
F-0.625
g11
I0
tp222
a(I132
I0
F1.0
g13
I0
tp223
a(I372
I0
F0.5
S'old'
p224
I0
tp225
a(I386
I0
F0.5
g15
I0
tp226
a(I398
I0
F-0.625
S'last'
p227
I0
tp228
a(I430
I0
F-0.625
S'new'
p229
I0
tp230
a(I435
I1
F-0.125
g17
I0
tp231
a(I455
I0
F-0.625
g21
I0
tp232
a(I479
I0
F-1.0
S'worst'
p233
I0
tp234
a(I480
I0
F-1.0
g23
I0
tp235
a(I555
I0
F-0.625
g25
I0
tp236
a(I570
I0
F1.0
g27
I0
tp237
a(I11
I5
F-0.625
S'new'
p238
I64
tp239
a(I11
I5
F0.5
S'old'
p240
I64
tp241
a(I11
I5
F-0.625
S'nearby'
p242
I64
tp243
a(I11
I7
F-0.625
S'new'
p244
I64
tp245
a(I11
I10
F0.5
S'old'
p246
I64
tp247
a(I11
I15
F0.5
S'similar'
p248
I64
tp249
a(I11
I25
F-0.625
S'new'
p250
I64
tp251
a(I11
I25
F0.375
S'available'
p252
I64
tp253
a(I11
I53
F-0.625
S'new'
p254
I64
tp255
a(I11
I57
F-0.625
S'new'
p256
I64
tp257
a(I11
I62
F-0.625
g11
I64
tp258
a(I11
I74
I0
S'different'
p259
I64
tp260
a(I37
I1
F-0.625
S'new'
p261
I64
tp262
a(I132
I0
F1.0
g13
I64
tp263
a(I219
I2
I0
S'current'
p264
I64
tp265
a(I273
I6
F1.0
S'best'
p266
I64
tp267
a(I324
I4
F0.5
S'old'
p268
I64
tp269
a(I324
I4
F-0.625
S'other'
p270
I64
tp271
a(I328
I6
F-0.75
S'difficult'
p272
I64
tp273
a(I328
I7
F-0.625
S'annoyed'
p274
I64
tp275
a(I328
I7
F0.5
S'older'
p276
I64
tp277
a(I328
I26
F-0.875
S'cheaper'
p278
I64
tp279
a(I328
I32
I0
S'iconic'
p280
I64
tp281
a(I369
I18
F-0.5
S'regular'
p282
I64
tp283
a(I372
I0
F0.5
g224
I64
tp284
a(I373
I1
F1.0
S'best'
p285
I64
tp286
a(I373
I32
F1.0
S'best'
p287
I64
tp288
a(I386
I0
F0.5
g15
I64
tp289
a(I390
I2
F-0.5
S'heavier'
p290
I64
tp291
a(I398
I0
F-0.625
g227
I64
tp292
a(I399
I6
F-0.25
S'previous'
p293
I64
tp294
a(I408
I2
F-0.5
S'original'
p295
I64
tp296
a(I408
I3
I0
S'advertised'
p297
I64
tp298
a(I408
I5
F-0.625
S'new'
p299
I64
tp300
a(I408
I5
F-0.625
S'sharp'
p301
I64
tp302
a(I408
I11
I0
S'comfortable'
p303
I64
tp304
a(I408
I31
F-0.625
S'new'
p305
I64
tp306
a(I430
I0
F-0.625
g229
I64
tp307
a(I435
I1
F-0.125
g17
I64
tp308
a(I442
I2
F-0.875
S'small'
p309
I64
tp310
a(I442
I17
F-0.75
S'free'
p311
I64
tp312
a(I442
I20
I0
S'current'
p313
I64
tp314
a(I442
I29
F-0.875
S'unhappy'
p315
I64
tp316
a(I455
I0
F-0.625
g21
I64
tp317
a(I462
I3
F0.625
S'first'
p318
I64
tp319
a(I462
I6
F0.5
S'second'
p320
I64
tp321
a(I479
I0
F-1.0
g233
I64
tp322
a(I480
I0
F-1.0
g23
I64
tp323
a(I555
I0
F-0.625
g25
I64
tp324
a(I570
I0
F1.0
g27
I64
tp325
as(S'camera'
p326
tp327
(lp328
(I8
I0
F0.875
S'amazing'
p329
I383
tp330
a(I11
I33
F0.5
S'powerful'
p331
I383
tp332
a(I11
I33
F-0.625
S'new'
p333
I383
tp334
a(I273
I5
F1.0
S'better'
p335
I383
tp336
a(I378
I19
I-100
S'u201ctele'
p337
I383
tp338
a(I378
I19
I-100
S'u201d'
p339
I383
tp340
a(I378
I19
I0
S'normal'
p341
I383
tp342
a(I378
I19
F0.5
S'old'
p343
I383
tp344
a(I378
I19
I0
S'clear'
p345
I383
tp346
a(I378
I19
F-0.625
S'wide'
p347
I383
tp348
a(I442
I7
F1.0
S'better'
p349
I383
tp350
a(I442
I8
F0.875
S'nicer'
p351
I383
tp352
a(I442
I8
F-0.5
S'less'
p353
I383
tp354
as(S'touch'
p355
tp356
(lp357
(I328
I44
F0.75
S'fantastic'
p358
I62
tp359
as(S'1'
p360
S'0'
p361
S'review'
p362
tp363
(lp364
(I427
I1
F-0.75
S'crappy'
p365
I0
tp366
a(I506
I0
F-0.5
S'slower'
p367
I0
tp368
a(I427
I1
F-0.75
g365
I0
tp369
a(I506
I0
F-0.5
g367
I0
tp370
as(S'need'
p371
tp372
(lp373
(I273
I2
F-0.875
S'fake'
p374
I214
tp375
as(S'apps'
p376
tp377
(lp378
(I328
I44
F0.75
S'wonderful'
p379
I192
tp380
a(I369
I41
F-0.625
S'other'
p381
I192
tp382
a(I369
I42
I0
S'most'
p383
I192
tp384
as(S'new'
p385
S'iphone'
p386
tp387
(lp388
(I11
I5
F-0.625
g238
I2
tp389
a(I11
I5
F0.5
g240
I2
tp390
a(I11
I5
F-0.625
g242
I2
tp391
a(I11
I7
F-0.625
g244
I2
tp392
a(I11
I25
F-0.625
g250
I2
tp393
a(I11
I25
F0.375
g252
I2
tp394
a(I11
I53
F-0.625
g254
I2
tp395
a(I11
I57
F-0.625
g256
I2
tp396
a(I11
I62
F-0.625
g11
I2
tp397
a(I37
I1
F-0.625
g261
I2
tp398
a(I132
I0
F1.0
g13
I2
tp399
a(I408
I5
F-0.625
g299
I2
tp400
a(I408
I5
F-0.625
g301
I2
tp401
a(I408
I31
F-0.625
g305
I2
tp402
a(I430
I0
F-0.625
g229
I2
tp403
a(I442
I20
I0
g313
I2
tp404
a(I555
I0
F-0.625
g25
I2
tp405
as(S'apple'
p406
tp407
(lp408
(I11
I2
F0.5
S'familiar'
p409
I54
tp410
a(I287
I2
F0.625
S'first'
p411
I54
tp412
a(I328
I23
F1.0
S'best'
p413
I54
tp414
a(I328
I26
I0
S's'
p415
I54
tp416
a(I369
I3
F-0.625
S'last'
p417
I54
tp418
a(I378
I19
F0.75
S'white'
p419
I54
tp420
a(I390
I4
F1.0
S'better'
p421
I54
tp422
a(I395
I0
I0
S'big'
p423
I54
tp424
a(I502
I9
F-0.75
S'little'
p425
I54
tp426
a(I560
I1
F-0.75
S'complain'
p427
I54
tp428
a(I560
I1
F0.125
S'don'
p429
I54
tp430
as(S'swipe'
p431
tp432
(lp433
(I390
I20
F-0.5
S'left'
p434
I27
tp435
as(S'glass'
p436
tp437
(lp438
(I11
I67
F0.75
S'beautiful'
p439
I109
tp440
a(I11
I68
F-0.125
S'back'
p441
I109
tp442
a(I373
I37
I0
S'wrap'
p443
I109
tp444
a(I408
I22
I0
S'durable'
p445
I109
tp446
a(I510
I3
I0
S'tempered'
p447
I109
tp448
as(S'work'
p449
tp450
(lp451
(I513
I0
F0.875
S'great'
p452
I611
tp453
as(S'plus'
p454
tp455
(lp456
(I369
I44
I0
S'massive'
p457
I108
tp458
as(S'good'
p459
S'review'
p460
tp461
(lp462
(I538
I0
I0
S'text'
p463
I0
tp464
a(I538
I0
F1.0
S'good'
p465
I0
tp466
as(S'facial'
p467
S'recognition'
p468
tp469
(lp470
(I8
I1
I0
S'facial'
p471
I16
tp472
a(I11
I23
I0
S'facial'
p473
I16
tp474
a(I142
I1
I0
S'facial'
p475
I16
tp476
a(I373
I12
I0
S'facial'
p477
I16
tp478
a(I399
I3
F-0.625
S'new'
p479
I16
tp480
a(I399
I3
I0
S'facial'
p481
I16
tp482
a(I399
I7
I0
S'facial'
p483
I16
tp484
a(I399
I8
I0
S't'
p485
I16
tp486
a(I399
I8
F0.375
S'content'
p487
I16
tp488
a(I399
I8
I0
S'facial'
p489
I16
tp490
a(I442
I9
I0
S'facial'
p491
I16
tp492
a(I442
I9
F0.75
S'fair'
p493
I16
tp494
a(I442
I9
F1.0
S'good'
p495
I16
tp496
a(I442
I9
F0.75
S'perfect'
p497
I16
tp498
a(I506
I0
I0
S'facial'
p499
I16
tp500
a(I8
I1
I0
g471
I55
tp501
a(I11
I23
I0
g473
I55
tp502
a(I142
I1
I0
g475
I55
tp503
a(I373
I12
I0
g477
I55
tp504
a(I399
I3
F-0.625
g479
I55
tp505
a(I399
I3
I0
g481
I55
tp506
a(I399
I7
I0
g483
I55
tp507
a(I399
I8
I0
g485
I55
tp508
a(I399
I8
F0.375
g487
I55
tp509
a(I399
I8
I0
g489
I55
tp510
a(I442
I9
I0
g491
I55
tp511
a(I442
I9
F0.75
g493
I55
tp512
a(I442
I9
F1.0
g495
I55
tp513
a(I442
I9
F0.75
g497
I55
tp514
a(I506
I0
I0
g499
I55
tp515
as(S'user'
p516
tp517
(lp518
(I368
I1
F0.75
S'beautiful'
p519
I106
tp520
a(I368
I1
F0.5
S'elegant'
p521
I106
tp522
a(I368
I1
F0.25
S'intuitive'
p523
I106
tp524
a(I390
I3
F-0.5
S'heavy'
p525
I106
tp526
as(S'works'
p527
tp528
(lp529
(I42
I3
F0.875
S'great'
p530
I186
tp531
a(I42
I3
F-0.25
S'i'
p532
I186
tp533
as(S'best'
p534
S'iphone'
p535
tp536
(lp537
(I132
I0
F1.0
g13
I2
tp538
a(I219
I2
I0
g264
I2
tp539
a(I273
I6
F1.0
g266
I2
tp540
a(I373
I1
F1.0
g285
I2
tp541
a(I373
I32
F1.0
g287
I2
tp542
as(S'no'
p543
S'home'
p544
S'button'
p545
tp546
(lp547
(I442
I15
F0.25
S'able'
p548
I3
tp549
a(I373
I9
F-0.75
S'little'
p550
I28
tp551
a(I373
I9
I0
S'pretty'
p552
I28
tp553
a(I373
I9
F0.875
S'neat'
p554
I28
tp555
a(I442
I15
F0.25
g548
I28
tp556
a(I373
I9
I0
g552
I74
tp557
a(I373
I9
F0.875
g554
I74
tp558
a(I442
I24
F0.5
S'similar'
p559
I74
tp560
a(I373
I9
F-0.75
g550
I202
tp561
a(I442
I15
F0.25
g548
I202
tp562
as(g7
S'review'
p563
S'text'
p564
tp565
(lp566
(I156
I0
F1.0
S'good'
p567
I0
tp568
a(I195
I0
I0
S'text'
p569
I0
tp570
a(I200
I0
F1.0
S'good'
p571
I0
tp572
a(I210
I0
I0
S'text'
p573
I0
tp574
a(I229
I0
I0
S'text'
p575
I0
tp576
a(I324
I2
F-0.25
S'earlier'
p577
I0
tp578
a(I332
I0
F0.875
g206
I0
tp579
a(I381
I1
F-1.0
S'worst'
p580
I0
tp581
a(I435
I1
F-0.75
g19
I0
tp582
a(I438
I1
F-0.875
S'hard'
p583
I0
tp584
a(I506
I0
F-0.5
g367
I0
tp585
a(I538
I0
I0
g463
I0
tp586
a(I538
I0
F1.0
g465
I0
tp587
a(I195
I0
I0
g569
I0
tp588
a(I210
I0
I0
g573
I0
tp589
a(I229
I0
I0
g575
I0
tp590
a(I262
I0
F0.5
S'expensive'
p591
I0
tp592
a(I435
I1
F-0.75
g19
I0
tp593
a(I506
I0
F-0.5
g367
I0
tp594
a(I538
I0
I0
g463
I0
tp595
a(I538
I0
F1.0
g465
I0
tp596
a(I156
I0
F1.0
g567
I0
tp597
a(I195
I0
I0
g569
I0
tp598
a(I200
I0
F1.0
g571
I0
tp599
a(I210
I0
I0
g573
I0
tp600
a(I229
I0
I0
g575
I0
tp601
a(I324
I2
F-0.25
g577
I0
tp602
a(I332
I0
F0.875
g206
I0
tp603
a(I381
I1
F-1.0
g580
I0
tp604
a(I438
I1
F-0.875
g583
I0
tp605
a(I506
I0
F-0.5
g367
I0
tp606
a(I538
I0
I0
g463
I0
tp607
a(I538
I0
F1.0
g465
I0
tp608
as(S'think'
p609
tp610
(lp611
(I427
I4
F0.125
S'don'
p612
I108
tp613
as(S'upgrade'
p614
tp615
(lp616
(I11
I63
F0.5
S'welcome'
p617
I139
tp618
a(I273
I4
F-0.125
S'huge'
p619
I139
tp620
a(I386
I4
F0.375
S'impressive'
p621
I139
tp622
a(I386
I10
F0.75
S'premium'
p623
I139
tp624
a(I390
I9
I0
S'big'
p625
I139
tp626
as(S'reviews'
p627
S'review'
p628
S'header'
p629
tp630
(lp631
(I435
I0
F0.25
S'helpful'
p632
I0
tp633
a(I435
I0
F0.25
g632
I0
tp634
a(I435
I1
F0.25
S'helpful'
p635
I0
tp636
a(I218
I0
F1.0
S'best'
p637
I0
tp638
a(I262
I0
F0.5
g591
I0
tp639
a(I276
I0
F0.875
S'happy'
p640
I0
tp641
a(I324
I0
F-0.25
S'earlier'
p642
I0
tp643
a(I377
I0
F-0.625
S'real'
p644
I0
tp645
a(I381
I0
F-1.0
S'worst'
p646
I0
tp647
a(I394
I0
F-0.5
S'unbiased'
p648
I0
tp649
a(I458
I0
F1.0
S'good'
p650
I0
tp651
a(I435
I0
F0.25
g632
I467
tp652
a(I435
I1
F0.25
g635
I467
tp653
as(S'didn'
p654
S't'
p655
tp656
(lp657
(I502
I9
I-100
S'didn'
p658
I0
tp659
as(S'bottom'
p660
tp661
(lp662
(I390
I20
I0
S'screen'
p663
I24
tp664
as(S'device'
p665
tp666
(lp667
(I328
I22
I0
S't'
p668
I245
tp669
a(I328
I22
F0.375
S'full'
p670
I245
tp671
a(I369
I22
F0.75
S'premium'
p672
I245
tp673
a(I369
I26
F-0.778
S'common'
p674
I245
tp675
a(I369
I44
F-0.25
S'clunky'
p676
I245
tp677
a(I386
I3
F0.125
S'utilitarian'
p678
I245
tp679
a(I502
I9
F0.875
S'important'
p680
I245
tp681
a(I510
I2
F-0.125
S'such'
p682
I245
tp683
as(S'free'
p684
S'sample'
p685
tp686
(lp687
(I547
I1
F-0.75
S'free'
p688
I6
tp689
a(I551
I1
F-0.75
S'free'
p690
I6
tp691
a(I555
I0
F-0.75
S'free'
p692
I6
tp693
as(S'beautiful'
p694
tp695
(lp696
(I369
I34
F0.625
S'friendly'
p697
I105
tp698
a(I369
I34
F0.25
S'intuitive'
p699
I105
tp700
as(S'price'
p701
tp702
(lp703
(I273
I6
F-0.125
S'overall'
p704
I410
tp705
a(I291
I0
F0.5
S'high'
p706
I410
tp707
a(I324
I6
F-0.5
S'excessive'
p708
I410
tp709
a(I378
I24
F0.5
S'high'
p710
I410
tp711
a(I378
I26
F0.5
S'high'
p712
I410
tp713
a(I408
I26
F-0.75
S'steep'
p714
I410
tp715
a(I442
I1
F0.375
S'full'
p716
I410
tp717
a(I560
I0
F0.125
S'exact'
p718
I410
tp719
a(I574
I1
F-0.375
S'same'
p720
I410
tp721
as(S'time'
p722
tp723
(lp724
(I11
I31
I0
S'only'
p725
I389
tp726
a(I33
I0
F-0.125
S'next'
p727
I389
tp728
a(I34
I0
F-0.125
S'next'
p729
I389
tp730
a(I328
I13
F0.625
S'first'
p731
I389
tp732
a(I462
I11
F0.625
S'first'
p733
I389
tp734
a(I462
I11
F-0.5
S'disappointed'
p735
I389
tp736
a(I510
I22
F-0.75
S'little'
p737
I389
tp738
as(S'review'
p739
S'header'
p740
S'iphone'
p741
tp742
(lp743
(I372
I0
F0.5
g224
I0
tp744
a(I398
I0
F-0.625
g227
I0
tp745
a(I430
I0
F-0.625
g229
I0
tp746
a(I479
I0
F-1.0
g233
I0
tp747
a(I372
I0
F0.5
g224
I0
tp748
a(I398
I0
F-0.625
g227
I0
tp749
a(I430
I0
F-0.625
g229
I0
tp750
a(I479
I0
F-1.0
g233
I0
tp751
as(S'product'
p752
S'review'
p753
tp754
(lp755
(I210
I0
I0
g573
I2
tp756
a(I229
I0
I0
g575
I2
tp757
a(I229
I0
F1.0
S'excellent'
p758
I2
tp759
a(I337
I0
F0.875
S'fabulous'
p760
I2
tp761
a(I547
I0
F0.875
S'great'
p762
I2
tp763
a(I547
I1
F0.875
S'great'
p764
I2
tp765
a(I210
I4
F1.0
S'good'
p766
I408
tp767
a(I229
I0
F1.0
g758
I408
tp768
a(I337
I0
F0.875
g760
I408
tp769
a(I341
I1
F0.875
S'great'
p770
I408
tp771
a(I378
I27
F0.75
S'premium'
p772
I408
tp773
a(I408
I5
F0.75
S'fantastic'
p774
I408
tp775
a(I547
I0
F0.875
g762
I408
tp776
a(I547
I1
F0.875
g764
I408
tp777
as(S'portrait'
p778
S'mode'
p779
tp780
(lp781
(I11
I38
F-0.625
S'new'
p782
I8
tp783
a(I390
I17
F0.875
S'great'
p784
I8
tp785
as.