(dp0
(S'review'
p1
S'text'
p2
S'good'
p3
tp4
(lp5
(I927
I0
I0
S'text'
p6
I0
tp7
a(I1068
I0
I0
S'text'
p8
I0
tp9
a(I1068
I0
F1.0
S'good'
p10
I0
tp11
a(I1264
I0
I0
S'delicate'
p12
I0
tp13
a(I1450
I0
F1.0
S'good'
p14
I0
tp15
a(I66
I0
F0.5
S'powerful'
p16
I377
tp17
a(I1264
I0
I0
g12
I377
tp18
as(S'nice'
p19
tp20
(lp21
(I814
I15
F-0.75
S'stupid'
p22
I175
tp23
as(S'url'
p24
S'http'
p25
S'www'
p26
tp27
(lp28
(I49
I0
I0
S'url'
p29
I0
tp30
a(I104
I0
I0
S'url'
p31
I0
tp32
a(I155
I0
I0
S'url'
p33
I0
tp34
a(I209
I0
I0
S'url'
p35
I0
tp36
a(I262
I0
I0
S'url'
p37
I0
tp38
a(I318
I0
I0
S'url'
p39
I0
tp40
a(I373
I0
I0
S'url'
p41
I0
tp42
a(I427
I0
I0
S'url'
p43
I0
tp44
a(I489
I0
I0
S'url'
p45
I0
tp46
a(I551
I0
I0
S'url'
p47
I0
tp48
a(I608
I0
I0
S'url'
p49
I0
tp50
a(I659
I0
I0
S'url'
p51
I0
tp52
a(I717
I0
I0
S'url'
p53
I0
tp54
a(I776
I0
I0
S'url'
p55
I0
tp56
a(I835
I0
I0
S'url'
p57
I0
tp58
a(I888
I0
I0
S'url'
p59
I0
tp60
a(I947
I0
I0
S'url'
p61
I0
tp62
a(I1005
I0
I0
S'url'
p63
I0
tp64
a(I1061
I0
I0
S'url'
p65
I0
tp66
a(I1114
I0
I0
S'url'
p67
I0
tp68
a(I1171
I0
I0
S'url'
p69
I0
tp70
a(I1224
I0
I0
S'url'
p71
I0
tp72
a(I1279
I0
I0
S'url'
p73
I0
tp74
a(I1332
I0
I0
S'url'
p75
I0
tp76
a(I1385
I0
I0
S'url'
p77
I0
tp78
a(I1443
I0
I0
S'url'
p79
I0
tp80
a(I1501
I0
I0
S'url'
p81
I0
tp82
a(I1553
I0
I0
S'url'
p83
I0
tp84
a(I49
I0
I0
g29
I0
tp85
a(I104
I0
I0
g31
I0
tp86
a(I155
I0
I0
g33
I0
tp87
a(I209
I0
I0
g35
I0
tp88
a(I262
I0
I0
g37
I0
tp89
a(I318
I0
I0
g39
I0
tp90
a(I373
I0
I0
g41
I0
tp91
a(I427
I0
I0
g43
I0
tp92
a(I489
I0
I0
g45
I0
tp93
a(I551
I0
I0
g47
I0
tp94
a(I608
I0
I0
g49
I0
tp95
a(I659
I0
I0
g51
I0
tp96
a(I717
I0
I0
g53
I0
tp97
a(I776
I0
I0
g55
I0
tp98
a(I835
I0
I0
g57
I0
tp99
a(I888
I0
I0
g59
I0
tp100
a(I947
I0
I0
g61
I0
tp101
a(I1005
I0
I0
g63
I0
tp102
a(I1061
I0
I0
g65
I0
tp103
a(I1114
I0
I0
g67
I0
tp104
a(I1171
I0
I0
g69
I0
tp105
a(I1224
I0
I0
g71
I0
tp106
a(I1279
I0
I0
g73
I0
tp107
a(I1332
I0
I0
g75
I0
tp108
a(I1385
I0
I0
g77
I0
tp109
a(I1443
I0
I0
g79
I0
tp110
a(I1501
I0
I0
g81
I0
tp111
a(I1553
I0
I0
g83
I0
tp112
a(I49
I0
I0
g29
I0
tp113
a(I104
I0
I0
g31
I0
tp114
a(I155
I0
I0
g33
I0
tp115
a(I209
I0
I0
g35
I0
tp116
a(I262
I0
I0
g37
I0
tp117
a(I318
I0
I0
g39
I0
tp118
a(I373
I0
I0
g41
I0
tp119
a(I427
I0
I0
g43
I0
tp120
a(I489
I0
I0
g45
I0
tp121
a(I551
I0
I0
g47
I0
tp122
a(I608
I0
I0
g49
I0
tp123
a(I659
I0
I0
g51
I0
tp124
a(I717
I0
I0
g53
I0
tp125
a(I776
I0
I0
g55
I0
tp126
a(I835
I0
I0
g57
I0
tp127
a(I888
I0
I0
g59
I0
tp128
a(I947
I0
I0
g61
I0
tp129
a(I1005
I0
I0
g63
I0
tp130
a(I1061
I0
I0
g65
I0
tp131
a(I1114
I0
I0
g67
I0
tp132
a(I1171
I0
I0
g69
I0
tp133
a(I1224
I0
I0
g71
I0
tp134
a(I1279
I0
I0
g73
I0
tp135
a(I1332
I0
I0
g75
I0
tp136
a(I1385
I0
I0
g77
I0
tp137
a(I1443
I0
I0
g79
I0
tp138
a(I1501
I0
I0
g81
I0
tp139
a(I1553
I0
I0
g83
I0
tp140
a(I49
I0
I0
g29
I210
tp141
a(I104
I0
I0
g31
I210
tp142
a(I155
I0
I0
g33
I210
tp143
a(I209
I0
I0
g35
I210
tp144
a(I262
I0
I0
g37
I210
tp145
a(I318
I0
I0
g39
I210
tp146
a(I373
I0
I0
g41
I210
tp147
a(I427
I0
I0
g43
I210
tp148
a(I489
I0
I0
g45
I210
tp149
a(I551
I0
I0
g47
I210
tp150
a(I608
I0
I0
g49
I210
tp151
a(I659
I0
I0
g51
I210
tp152
a(I717
I0
I0
g53
I210
tp153
a(I776
I0
I0
g55
I210
tp154
a(I835
I0
I0
g57
I210
tp155
a(I888
I0
I0
g59
I210
tp156
a(I947
I0
I0
g61
I210
tp157
a(I1005
I0
I0
g63
I210
tp158
a(I1061
I0
I0
g65
I210
tp159
a(I1114
I0
I0
g67
I210
tp160
a(I1171
I0
I0
g69
I210
tp161
a(I1224
I0
I0
g71
I210
tp162
a(I1279
I0
I0
g73
I210
tp163
a(I1332
I0
I0
g75
I210
tp164
a(I1385
I0
I0
g77
I210
tp165
a(I1443
I0
I0
g79
I210
tp166
a(I1501
I0
I0
g81
I210
tp167
a(I1553
I0
I0
g83
I210
tp168
as(S'operating'
p169
S'system'
p170
tp171
(lp172
(I15
I70
I0
S'most'
p173
I14
tp174
a(I15
I70
F0.375
S'much'
p175
I14
tp176
as(S'iphone'
p177
tp178
(lp179
(I9
I11
F-0.75
S'little'
p180
I64
tp181
a(I9
I35
F-0.75
S'dimmest'
p182
I64
tp183
a(I9
I65
F-0.625
S'last'
p184
I64
tp185
a(I9
I71
F0.625
S'first'
p186
I64
tp187
a(I9
I71
I0
S'different'
p188
I64
tp189
a(I9
I73
F1.0
S'better'
p190
I64
tp191
a(I15
I44
F-0.5
S'loud'
p192
I64
tp193
a(I110
I1
F0.5
S'avid'
p194
I64
tp195
a(I848
I4
F-0.875
S'cheaper'
p196
I64
tp197
a(I1082
I12
F0.375
S'much'
p198
I64
tp199
a(I1082
I12
F0.5
S'older'
p200
I64
tp201
a(I1189
I11
F-0.625
S'new'
p202
I64
tp203
a(I1203
I1
F-0.75
S'single'
p204
I64
tp205
a(I1364
I0
I0
S'ex'
p206
I64
tp207
a(I1364
I1
I0
S'ex'
p208
I64
tp209
a(I1368
I0
F-0.25
S'previous'
p210
I64
tp211
a(I1459
I17
F0.375
S'much'
p212
I64
tp213
a(I1530
I12
F-0.625
S'sharp'
p214
I64
tp215
as(S'quality'
p216
tp217
(lp218
(I4
I17
F-0.5
S'call'
p219
I157
tp220
a(I4
I18
F1.0
S'excellent'
p221
I157
tp222
a(I9
I17
F-0.875
S'angry'
p223
I157
tp224
a(I9
I73
I0
S'screen'
p225
I157
tp226
a(I9
I73
F0.75
S'fantastic'
p227
I157
tp228
a(I15
I62
I0
S'build'
p229
I157
tp230
a(I15
I62
F1.0
S'excellent'
p231
I157
tp232
a(I21
I11
F0.5
S'high'
p233
I157
tp234
a(I37
I10
F1.0
S'good'
p235
I157
tp236
a(I56
I2
I0
S'incredible'
p237
I157
tp238
a(I63
I17
F1.0
S'good'
p239
I157
tp240
a(I295
I2
I0
S'questionable'
p241
I157
tp242
a(I328
I1
F1.0
S'good'
p243
I157
tp244
a(I648
I0
F1.0
S'good'
p245
I157
tp246
a(I648
I4
F1.0
S'good'
p247
I157
tp248
a(I1029
I2
F1.0
S'good'
p249
I157
tp250
a(I1140
I2
I0
S'build'
p251
I157
tp252
a(I1140
I2
F0.875
S'awesome'
p253
I157
tp254
a(I1185
I7
F0.75
S'sound'
p255
I157
tp256
a(I1185
I7
F1.0
S'good'
p257
I157
tp258
a(I1196
I6
I0
S'proprietary'
p259
I157
tp260
a(I1196
I6
F-0.875
S'poor'
p261
I157
tp262
a(I1196
I8
F-0.875
S'low'
p263
I157
tp264
a(I1196
I12
I0
S'more'
p265
I157
tp266
as(S'apple'
p267
tp268
(lp269
(I9
I5
F0.625
S'cute'
p270
I54
tp271
a(I9
I7
F0.125
S'ios'
p272
I54
tp273
a(I9
I52
F1.0
S'better'
p274
I54
tp275
a(I9
I67
F-0.75
S'exclusive'
p276
I54
tp277
a(I1202
I0
I0
S'lifelong'
p278
I54
tp279
a(I1256
I9
F-0.375
S'convinced'
p280
I54
tp281
a(I1459
I18
F1.0
S'good'
p282
I54
tp283
as(S'stylus'
p284
tp285
(lp286
(I21
I18
I0
S't'
p287
I36
tp288
a(I67
I0
I0
S'useful'
p289
I36
tp290
a(I282
I1
F-0.625
S'sensitive'
p291
I36
tp292
a(I845
I2
I0
S'tiny'
p293
I36
tp294
a(I845
I2
F0.375
S'much'
p295
I36
tp296
a(I1081
I0
F-0.75
S'disappointing'
p297
I36
tp298
a(I1082
I8
F-0.625
S'sensitive'
p299
I36
tp300
a(I1131
I22
F-0.875
S'smart'
p301
I36
tp302
a(I1181
I16
F-0.625
S'new'
p303
I36
tp304
as(S'verizon'
p305
tp306
(lp307
(I56
I6
F0.875
S'great'
p308
I17
tp309
a(I59
I6
F-0.125
S'such'
p310
I17
tp311
a(I89
I2
I0
S's'
p312
I17
tp313
a(I89
I2
F-0.625
S'other'
p314
I17
tp315
a(I89
I3
F0.25
S'basic'
p316
I17
tp317
a(I814
I5
I0
S'multiple'
p318
I17
tp319
a(I976
I1
F-0.25
S'late'
p320
I17
tp321
as(S'review'
p322
S'text'
p323
S'love'
p324
tp325
(lp326
(I190
I0
I0
S'text'
p327
I0
tp328
a(I458
I0
F0.75
S'perfect'
p329
I0
tp330
a(I190
I0
I0
g327
I0
tp331
a(I458
I0
F0.75
g329
I0
tp332
a(I458
I0
F0.75
g329
I0
tp333
a(I190
I0
I0
g327
I0
tp334
as(S'visual'
p335
S'voicemail'
p336
tp337
(lp338
(I89
I1
F-0.375
S'visual'
p339
I9
tp340
a(I89
I3
F-0.375
S'visual'
p341
I9
tp342
a(I89
I4
F-0.375
S'visual'
p343
I9
tp344
a(I89
I4
F-0.75
S'free'
p345
I9
tp346
a(I89
I8
F-0.375
S'visual'
p347
I9
tp348
a(I89
I13
F0.625
S'convenient'
p349
I9
tp350
a(I89
I13
F-0.375
S'visual'
p351
I9
tp352
a(I1231
I12
F-0.375
S'visual'
p353
I9
tp354
a(I1368
I12
F-0.375
S'visual'
p355
I9
tp356
a(I1432
I0
F-0.375
S'visual'
p357
I9
tp358
as(S'case'
p359
tp360
(lp361
(I1131
I12
F0.75
S'easier'
p362
I185
tp363
a(I1135
I28
I0
S'isn'
p364
I185
tp365
a(I1150
I3
F-0.875
S'strong'
p366
I185
tp367
a(I1150
I3
I0
S'durable'
p368
I185
tp369
a(I1185
I13
F-0.75
S'difficult'
p370
I185
tp371
as(S'so'
p372
S'far'
p373
S'review'
p374
tp375
(lp376
(I62
I0
F1.0
S'good'
p377
I0
tp378
a(I63
I0
F1.0
S'good'
p379
I0
tp380
as(S'software'
p381
tp382
(lp383
(I29
I6
F0.375
S'feature'
p384
I102
tp385
a(I29
I6
F-0.125
S'packed'
p386
I102
tp387
a(I1097
I0
F0.5
S'added'
p388
I102
tp389
a(I1097
I5
F0.5
S'added'
p390
I102
tp391
a(I1097
I6
F0.5
S'added'
p392
I102
tp393
a(I1131
I18
F-0.625
S'other'
p394
I102
tp395
a(I1178
I4
F0.625
S'sensible'
p396
I102
tp397
a(I1199
I1
I0
S'pen'
p398
I102
tp399
a(I1427
I14
I0
S'more'
p400
I102
tp401
as(S'edge'
p402
tp403
(lp404
(I4
I6
F0.75
S'beautiful'
p405
I132
tp406
a(I15
I53
F0.875
S'right'
p407
I132
tp408
a(I877
I10
F0.75
S'beautiful'
p409
I132
tp410
a(I971
I1
F-0.25
S'previous'
p411
I132
tp412
a(I1371
I6
F0.5
S'possible'
p413
I132
tp414
a(I1464
I3
F0.25
S'rounded'
p415
I132
tp416
a(I1464
I5
F-0.625
S'useless'
p417
I132
tp418
a(I1464
I9
F0.5
S'rid'
p419
I132
tp420
as(S'stars'
p421
tp422
(lp423
(I814
I20
F-0.875
S'negative'
p424
I53
tp425
a(I1454
I8
F-0.25
S'i'
p426
I53
tp427
as(S'review'
p428
S'text'
p429
S'great'
p430
tp431
(lp432
(I345
I0
F0.875
S'great'
p433
I0
tp434
a(I864
I0
F0.875
S'great'
p435
I0
tp436
a(I345
I0
F0.875
g433
I0
tp437
a(I864
I0
F0.875
g435
I0
tp438
a(I670
I22
F0.75
S'plus'
p439
I500
tp440
a(I670
I22
I-100
S'u2022'
p441
I500
tp442
a(I728
I2
F-0.5
S'call'
p443
I500
tp444
as(S'card'
p445
tp446
(lp447
(I15
I26
F-0.5
S'original'
p448
I162
tp449
a(I1029
I11
I-100
S'microsd'
p450
I162
tp451
a(I1077
I5
F0.375
S'capable'
p452
I162
tp453
a(I1239
I5
I0
S'different'
p454
I162
tp455
a(I1239
I17
F-0.125
S'numerous'
p456
I162
tp457
as(S'customer'
p458
S'service'
p459
tp460
(lp461
(I539
I4
F-1.0
S'worst'
p462
I17
tp463
a(I1032
I0
F-0.625
S'useless'
p464
I17
tp465
a(I1032
I5
F-0.625
S'useless'
p466
I17
tp467
as(S'fast'
p468
tp469
(lp470
(I93
I2
I0
S'advertised'
p471
I241
tp472
as(S'0'
p473
S'review'
p474
tp475
(lp476
(I1344
I0
F0.5
S'compatible'
p477
I0
tp478
as(S'price'
p479
tp480
(lp481
(I9
I71
F-0.75
S'stiff'
p482
I410
tp483
a(I18
I18
I0
S'unfair'
p484
I410
tp485
a(I125
I12
F0.875
S'great'
p486
I410
tp487
a(I355
I0
I0
S'initial'
p488
I410
tp489
a(I406
I0
F0.875
S'great'
p490
I410
tp491
a(I407
I1
F0.875
S'great'
p492
I410
tp493
a(I472
I0
F-0.5
S'unlocked'
p494
I410
tp495
a(I472
I0
F1.0
S'good'
p496
I410
tp497
a(I539
I6
I0
S'awful'
p498
I410
tp499
a(I583
I7
F0.75
S'premium'
p500
I410
tp501
a(I619
I1
F0.875
S'nice'
p502
I410
tp503
a(I976
I0
F1.0
S'good'
p504
I410
tp505
a(I1049
I7
F-0.375
S'half'
p506
I410
tp507
a(I1089
I10
F-0.375
S'same'
p508
I410
tp509
a(I1181
I20
F0.125
S'hefty'
p510
I410
tp511
a(I1294
I2
F-0.5
S'original'
p512
I410
tp513
as(S'removable'
p514
S'batteries'
p515
tp516
(lp517
(I670
I29
F0.625
S'removable'
p518
I3
tp519
a(I1121
I18
F0.625
S'removable'
p520
I3
tp521
a(I1121
I21
F0.625
S'removable'
p522
I3
tp523
as(S'need'
p524
tp525
(lp526
(I15
I76
F0.375
S'shy'
p527
I214
tp528
as(S'perfect'
p529
S'review'
p530
S'rating'
p531
tp532
(lp533
(I9
I74
F0.75
S'perfect'
p534
I0
tp535
a(I9
I74
F0.75
g534
I0
tp536
a(I1352
I0
F0.5
S'highest'
p537
I0
tp538
as(S'1'
p539
S'star'
p540
tp541
(lp542
(I1522
I7
F0.875
S'simple'
p543
I210
tp544
as(S'product'
p545
tp546
(lp547
(I119
I9
F1.0
S'good'
p548
I408
tp549
a(I237
I1
F1.0
S'good'
p550
I408
tp551
a(I298
I0
F0.875
S'great'
p552
I408
tp553
a(I814
I18
F1.0
S'good'
p554
I408
tp555
as(S'google'
p556
tp557
(lp558
(I1160
I1
I0
S'quick'
p559
I32
tp560
a(I1404
I2
F-0.5
S'long'
p561
I32
tp562
as(S'things'
p563
tp564
(lp565
(I4
I14
F-0.625
S'other'
p566
I107
tp567
a(I4
I14
I-100
S'woww'
p568
I107
tp569
a(I15
I3
I0
S'few'
p570
I107
tp571
a(I93
I0
I0
S'many'
p572
I107
tp573
a(I350
I3
F-0.5
S'several'
p574
I107
tp575
a(I350
I3
F0.875
S'important'
p576
I107
tp577
a(I962
I20
F-0.625
S'other'
p578
I107
tp579
a(I1029
I12
F-1.0
S'bad'
p580
I107
tp581
a(I1103
I10
F0.5
S'personal'
p582
I107
tp583
a(I1103
I10
F0.375
S'favorite'
p584
I107
tp585
a(I1124
I18
I0
S'specific'
p586
I107
tp587
a(I1135
I7
I0
S'cool'
p588
I107
tp589
a(I1178
I2
F0.875
S'great'
p590
I107
tp591
a(I1185
I5
I0
S'many'
p592
I107
tp593
a(I1185
I5
F1.0
S'good'
p594
I107
tp595
a(I1244
I2
F0.5
S'true'
p596
I107
tp597
a(I1244
I2
I0
S'more'
p598
I107
tp599
a(I1316
I7
F1.0
S'good'
p600
I107
tp601
a(I1368
I36
F0.25
S'able'
p602
I107
tp603
a(I1423
I1
I0
S'many'
p604
I107
tp605
a(I1427
I1
I-100
S'u2026'
p606
I107
tp607
a(I1454
I3
F1.0
S'good'
p608
I107
tp609
a(I1508
I13
F0.75
S'beautiful'
p610
I107
tp611
as(S'bixby'
p612
tp613
(lp614
(I269
I0
F-0.625
S'dumb'
p615
I46
tp616
a(I750
I2
F-0.5
S'aside'
p617
I46
tp618
a(I750
I3
I0
S'least'
p619
I46
tp620
a(I848
I12
I0
S'useful'
p621
I46
tp622
a(I962
I14
F0.625
S'first'
p623
I46
tp624
a(I962
I14
F-0.75
S'little'
p625
I46
tp626
a(I962
I14
F-0.625
S'annoyed'
p627
I46
tp628
a(I962
I21
F0.375
S'favorite'
p629
I46
tp630
a(I1124
I14
F0.5
S'second'
p631
I46
tp632
a(I1124
I18
F0.375
S'creative'
p633
I46
tp634
a(I1124
I18
I0
S'cool'
p635
I46
tp636
a(I1124
I18
F0.25
S'basic'
p637
I46
tp638
a(I1423
I3
F0.875
S'amazing'
p639
I46
tp640
as(S'android'
p641
tp642
(lp643
(I15
I68
F0.5
S'modifiable'
p644
I62
tp645
a(I15
I74
F-0.125
S'general'
p646
I62
tp647
a(I33
I3
F-0.625
S'last'
p648
I62
tp649
a(I33
I3
F0.375
S'used'
p650
I62
tp651
a(I198
I0
F0.75
S'outstanding'
p652
I62
tp653
a(I198
I1
F0.75
S'outstanding'
p654
I62
tp655
a(I219
I6
F-0.625
S'fastest'
p656
I62
tp657
a(I219
I7
F0.875
S'clean'
p658
I62
tp659
a(I1029
I5
F-0.125
S'overall'
p660
I62
tp661
a(I1029
I5
F1.0
S'best'
p662
I62
tp663
a(I1530
I6
F-0.625
S'other'
p664
I62
tp665
a(I1530
I12
F-1.0
S'worst'
p666
I62
tp667
a(I1530
I12
F-0.625
S'other'
p668
I62
tp669
as(S'fingerprint'
p670
S'sensor'
p671
tp672
(lp673
(I219
I5
F-0.625
S'fastest'
p674
I23
tp675
a(I980
I5
I0
S'active'
p676
I23
tp677
a(I1082
I4
I0
S'iris'
p678
I23
tp679
as(S'star'
p680
S'review'
p681
S'text'
p682
tp683
(lp684
(I1450
I0
F1.0
g14
I0
tp685
a(I37
I0
F0.75
S'complete'
p686
I0
tp687
a(I128
I1
I0
S'more'
p688
I0
tp689
a(I190
I0
I0
g327
I0
tp690
a(I222
I2
F-0.625
S'new'
p691
I0
tp692
a(I269
I0
F-0.625
S'other'
p693
I0
tp694
a(I278
I0
I0
S'text'
p695
I0
tp696
a(I345
I0
F0.875
g433
I0
tp697
a(I458
I0
F0.75
g329
I0
tp698
a(I511
I0
I0
S's'
p699
I0
tp700
a(I511
I0
F0.875
S'nice'
p701
I0
tp702
a(I516
I0
F0.625
S'rich'
p703
I0
tp704
a(I596
I0
F0.75
S'glad'
p705
I0
tp706
a(I645
I1
I0
S'big'
p707
I0
tp708
a(I848
I2
I0
S'text'
p709
I0
tp710
a(I864
I0
F0.875
g435
I0
tp711
a(I927
I0
I0
g6
I0
tp712
a(I1044
I0
F-0.625
S'fragile'
p713
I0
tp714
a(I1068
I0
I0
g8
I0
tp715
a(I1068
I0
F1.0
g10
I0
tp716
a(I1124
I2
I0
S'text'
p717
I0
tp718
a(I1344
I0
F0.5
g477
I0
tp719
a(I1404
I0
F0.25
S'thumbs'
p720
I0
tp721
a(I1450
I0
F1.0
g14
I0
tp722
a(I1477
I0
I0
S'text'
p723
I0
tp724
as(S'thing'
p725
tp726
(lp727
(I4
I6
F0.375
S'favorite'
p728
I683
tp729
a(I29
I14
F1.0
S'good'
p730
I683
tp731
a(I37
I16
F0.375
S'favorite'
p732
I683
tp733
a(I37
I18
F-0.125
S'next'
p734
I683
tp735
a(I37
I20
F-0.625
S'last'
p736
I683
tp737
a(I74
I5
I0
S'useful'
p738
I683
tp739
a(I136
I3
F0.875
S'amazing'
p740
I683
tp741
a(I391
I0
F0.875
S'important'
p742
I683
tp743
a(I648
I3
F0.625
S'first'
p744
I683
tp745
a(I666
I8
I0
S'picky'
p746
I683
tp747
a(I1044
I2
F-0.5
S'damn'
p748
I683
tp749
a(I1135
I15
F-0.5
S'fun'
p750
I683
tp751
a(I1185
I9
F0.375
S'capable'
p752
I683
tp753
a(I1239
I12
F0.875
S'right'
p754
I683
tp755
a(I1427
I15
F-0.375
S'same'
p756
I683
tp757
as(S'amazing'
p758
S'review'
p759
S'text'
p760
tp761
(lp762
(I128
I1
I0
g688
I0
tp763
a(I128
I1
F-0.625
S'fast'
p764
I0
tp765
a(I570
I0
F-0.125
S'overall'
p766
I0
tp767
a(I128
I1
F-0.625
g764
I179
tp768
a(I570
I0
F-0.125
g766
I179
tp769
as(S'note'
p770
S'8'
p771
S'review'
p772
tp773
(lp774
(I21
I0
F-0.625
S'last'
p775
I0
tp776
a(I21
I1
I-100
S'underwhelmed'
p777
I0
tp778
a(I877
I0
F0.75
S'beautiful'
p779
I0
tp780
a(I877
I0
F-0.625
S'new'
p781
I0
tp782
a(I1150
I0
F0.875
S'awesome'
p783
I0
tp784
as(S'work'
p785
tp786
(lp787
(I15
I49
F0.625
S'fine'
p788
I611
tp789
a(I21
I17
I-100
S'arent'
p790
I611
tp791
a(I166
I0
I0
S't'
p792
I611
tp793
a(I166
I1
I0
S't'
p794
I611
tp795
a(I233
I0
I0
S's'
p796
I611
tp797
a(I233
I0
F0.875
S'great'
p798
I611
tp799
a(I234
I0
I0
S's'
p800
I611
tp801
a(I234
I0
F0.875
S'great'
p802
I611
tp803
a(I705
I0
I0
S's'
p804
I611
tp805
a(I1256
I3
F0.5
S'personal'
p806
I611
tp807
as(S'battery'
p808
S'life'
p809
tp810
(lp811
(I9
I53
F0.875
S'great'
p812
I117
tp813
a(I15
I32
F-0.25
S'battery'
p814
I117
tp815
a(I15
I78
F0.625
S'acceptable'
p816
I117
tp817
a(I29
I30
F0.875
S'great'
p818
I117
tp819
a(I33
I16
F1.0
S'good'
p820
I117
tp821
a(I122
I3
F-0.875
S'poor'
p822
I117
tp823
a(I140
I2
I0
S'update'
p824
I117
tp825
a(I219
I10
F0.875
S'decent'
p826
I117
tp827
a(I337
I1
F-0.875
S'terrible'
p828
I117
tp829
a(I337
I11
F-0.25
S'battery'
p830
I117
tp831
a(I362
I1
F0.875
S'great'
p832
I117
tp833
a(I670
I24
I-100
S'subpar'
p834
I117
tp835
a(I670
I33
F-0.125
S'overall'
p836
I117
tp837
a(I877
I1
I-100
S'suckier'
p838
I117
tp839
a(I1077
I5
I0
S'alternative'
p840
I117
tp841
a(I1082
I3
F-0.625
S'average'
p842
I117
tp843
a(I1103
I8
F0.5
S'large'
p844
I117
tp845
a(I1178
I3
F-0.875
S'smaller'
p846
I117
tp847
a(I1196
I5
F-1.0
S'pitiful'
p848
I117
tp849
a(I1208
I4
F1.0
S'good'
p850
I117
tp851
a(I1286
I4
F0.625
S'fine'
p852
I117
tp853
a(I1530
I10
F-0.375
S'adequate'
p854
I117
tp855
a(I15
I32
F-0.25
g814
I194
tp856
a(I15
I78
F0.625
g816
I194
tp857
a(I29
I30
F0.875
g818
I194
tp858
a(I33
I16
F1.0
g820
I194
tp859
a(I128
I2
F0.75
S'whole'
p860
I194
tp861
a(I128
I2
F1.0
S'best'
p862
I194
tp863
a(I140
I2
I0
g824
I194
tp864
a(I219
I10
F0.875
g826
I194
tp865
a(I337
I11
F-0.25
g830
I194
tp866
a(I1077
I5
I0
g840
I194
tp867
a(I1178
I16
F0.75
S'easier'
p868
I194
tp869
a(I1196
I5
F-1.0
g848
I194
tp870
a(I1208
I4
F1.0
g850
I194
tp871
a(I1286
I4
F0.625
g852
I194
tp872
a(I9
I11
F-0.75
S'defective'
p873
I280
tp874
a(I9
I13
F-0.125
S'numerous'
p875
I280
tp876
a(I9
I13
F-0.75
S'faulty'
p877
I280
tp878
a(I9
I14
F0.5
S'empty'
p879
I280
tp880
a(I9
I53
F0.875
g812
I280
tp881
a(I15
I29
I0
S'main'
p882
I280
tp883
a(I21
I13
F-0.5
S'weak'
p884
I280
tp885
a(I67
I19
F0.375
S'ok'
p886
I280
tp887
a(I122
I3
F-0.875
g822
I280
tp888
a(I337
I1
F-0.875
g828
I280
tp889
a(I355
I6
F0.5
S'intensive'
p890
I280
tp891
a(I362
I1
F0.875
g832
I280
tp892
a(I477
I4
F-0.5
S'weaker'
p893
I280
tp894
a(I638
I1
I0
S'more'
p895
I280
tp896
a(I670
I28
F0.625
S'removable'
p897
I280
tp898
a(I670
I33
F-0.125
g836
I280
tp899
a(I842
I1
F-0.875
S'terrible'
p900
I280
tp901
a(I1012
I4
F-0.875
S'smaller'
p902
I280
tp903
a(I1082
I3
F-0.625
g842
I280
tp904
a(I1103
I8
F0.5
g844
I280
tp905
a(I1121
I17
F0.625
S'removable'
p906
I280
tp907
a(I1140
I6
F-0.625
S'last'
p908
I280
tp909
a(I1178
I3
F-0.875
g846
I280
tp910
a(I1185
I3
F0.5
S'responsive'
p911
I280
tp912
a(I1192
I11
F-0.5
S'longer'
p913
I280
tp914
a(I1364
I0
F-1.0
S'bad'
p915
I280
tp916
a(I1364
I1
F-1.0
S'bad'
p917
I280
tp918
a(I1368
I29
F-0.5
S'slower'
p919
I280
tp920
a(I1459
I3
F-0.875
S'negative'
p921
I280
tp922
a(I1522
I12
F0.5
S'safer'
p923
I280
tp924
a(I1530
I10
F-0.375
g854
I280
tp925
as(S'ud83d'
p926
S'ude01'
p927
S'ud83d'
p928
tp929
(lp930
(I1149
I0
I-100
S'ude01'
p931
I0
tp932
as(S'finger'
p933
S'print'
p934
S'sensor'
p935
tp936
(lp937
(I219
I5
F-0.625
g674
I5
tp938
a(I592
I1
F-0.75
S'difficult'
p939
I5
tp940
a(I980
I5
I0
g676
I5
tp941
a(I1082
I4
I0
g678
I5
tp942
a(I219
I5
F-0.625
g674
I34
tp943
a(I592
I1
F-0.75
g939
I34
tp944
a(I980
I5
I0
g676
I34
tp945
a(I1082
I4
I0
g678
I34
tp946
as(S'iris'
p947
S'scanner'
p948
tp949
(lp950
(I962
I3
I0
S'iris'
p951
I13
tp952
a(I1203
I5
I0
S'iris'
p953
I13
tp954
a(I1203
I5
F0.875
S'happy'
p955
I13
tp956
as(S'back'
p957
tp958
(lp959
(I4
I19
F0.75
S'beautiful'
p960
I267
tp961
a(I1481
I4
F-0.5
S'worthless'
p962
I267
tp963
as(S'reviews'
p964
S'review'
p965
tp966
(lp967
(I115
I2
F-0.625
S'independent'
p968
I0
tp969
a(I355
I10
F-0.875
S'negative'
p970
I0
tp971
a(I355
I10
I-100
S'nonse'
p972
I0
tp973
a(I740
I0
I0
S'many'
p974
I0
tp975
a(I741
I1
I0
S'many'
p976
I0
tp977
a(I801
I0
F-0.125
S'overall'
p978
I0
tp979
a(I962
I10
F0.5
S'detailed'
p980
I0
tp981
a(I1103
I11
I0
S'many'
p982
I0
tp983
a(I115
I2
F-0.625
g968
I467
tp984
a(I355
I10
F-0.875
g970
I467
tp985
a(I740
I0
I0
g974
I467
tp986
a(I741
I1
I0
g976
I467
tp987
a(I801
I0
F-0.125
g978
I467
tp988
a(I962
I10
F0.5
g980
I467
tp989
a(I1103
I11
I0
g982
I467
tp990
as(S'galaxy'
p991
S'note'
p992
tp993
(lp994
(I477
I1
F-0.875
S'hard'
p995
I6
tp996
a(I980
I5
F0.5
S'old'
p997
I6
tp998
a(I1089
I0
I0
S'galaxy'
p999
I6
tp1000
a(I1089
I1
F0.125
S'mobile'
p1001
I6
tp1002
a(I1135
I32
I0
S'galaxy'
p1003
I6
tp1004
a(I1150
I0
F0.875
g783
I6
tp1005
a(I1189
I1
F1.0
S'better'
p1006
I6
tp1007
a(I1192
I2
I0
S'incredible'
p1008
I6
tp1009
a(I1192
I2
F-0.5
S'disappointed'
p1010
I6
tp1011
a(I1454
I1
F-0.5
S'original'
p1012
I6
tp1013
as(S'display'
p1014
tp1015
(lp1016
(I4
I6
I0
S'bright'
p1017
I151
tp1018
a(I4
I6
I0
S'legible'
p1019
I151
tp1020
a(I33
I8
F0.5
S'crisp'
p1021
I151
tp1022
a(I33
I8
I0
S'bright'
p1023
I151
tp1024
a(I67
I6
F0.5
S'largest'
p1025
I151
tp1026
a(I67
I7
F0.75
S'premium'
p1027
I151
tp1028
a(I67
I7
F-0.625
S'real'
p1029
I151
tp1030
a(I67
I10
F-0.625
S'real'
p1031
I151
tp1032
a(I670
I22
F0.875
S'brilliant'
p1033
I151
tp1034
a(I801
I32
F1.0
S'good'
p1035
I151
tp1036
a(I814
I9
F1.0
S'good'
p1037
I151
tp1038
a(I814
I14
I0
S'incredible'
p1039
I151
tp1040
a(I983
I0
I0
S'curved'
p1041
I151
tp1042
a(I983
I0
F-0.625
S'fragile'
p1043
I151
tp1044
a(I984
I0
I0
S'curved'
p1045
I151
tp1046
a(I984
I0
F-0.625
S'fragile'
p1047
I151
tp1048
a(I1181
I7
F-0.625
S'sharp'
p1049
I151
tp1050
a(I1203
I4
F0.875
S'great'
p1051
I151
tp1052
a(I1244
I1
F1.0
S'best'
p1053
I151
tp1054
a(I1522
I2
F-0.625
S'sharp'
p1055
I151
tp1056
a(I1522
I2
I0
S'clear'
p1057
I151
tp1058
as(S'low'
p1059
S'light'
p1060
tp1061
(lp1062
(I56
I4
F-0.875
S'low'
p1063
I18
tp1064
a(I797
I5
F-0.875
S'low'
p1065
I18
tp1066
a(I962
I11
F-0.875
S'low'
p1067
I18
tp1068
as(S'samsung'
p1069
S'galaxy'
p1070
tp1071
(lp1072
(I71
I13
I0
S'third'
p1073
I4
tp1074
a(I84
I0
F-0.5
S'several'
p1075
I4
tp1076
a(I1530
I1
I0
S'many'
p1077
I4
tp1078
a(I1530
I1
I0
S'different'
p1079
I4
tp1080
a(I477
I1
F-0.875
g995
I51
tp1081
a(I670
I29
F-0.5
S'regular'
p1082
I51
tp1083
a(I980
I5
F0.5
g997
I51
tp1084
a(I1089
I1
F0.125
g1001
I51
tp1085
a(I1244
I15
F-0.125
S'next'
p1086
I51
tp1087
a(I1454
I1
F-0.5
g1012
I51
tp1088
as(S'note'
p1089
g771
S's'
p1090
tp1091
(lp1092
(I9
I60
F1.0
S'best'
p1093
I2
tp1094
a(I15
I45
F0.125
S'plenty'
p1095
I2
tp1096
a(I21
I0
F-0.625
g775
I2
tp1097
a(I21
I3
F-0.625
S'last'
p1098
I2
tp1099
a(I21
I10
I0
S't'
p1100
I2
tp1101
a(I21
I10
F0.5
S'possible'
p1102
I2
tp1103
a(I21
I10
F0.625
S'smooth'
p1104
I2
tp1105
a(I67
I23
F-0.75
S'little'
p1106
I2
tp1107
a(I71
I6
F0.5
S'expensive'
p1108
I2
tp1109
a(I125
I6
F0.375
S'much'
p1110
I2
tp1111
a(I670
I18
F-0.625
S'new'
p1112
I2
tp1113
a(I877
I0
F0.75
g779
I2
tp1114
a(I877
I0
F-0.625
g781
I2
tp1115
a(I980
I11
F-0.125
S'such'
p1116
I2
tp1117
a(I988
I2
F0.5
S'larger'
p1118
I2
tp1119
a(I1121
I21
F0.375
S'available'
p1120
I2
tp1121
a(I1131
I15
F0.125
S'overpriced'
p1122
I2
tp1123
a(I1135
I32
I0
g1003
I2
tp1124
a(I1150
I0
F0.875
g783
I2
tp1125
a(I1181
I10
F-0.625
S'new'
p1126
I2
tp1127
a(I1196
I8
F1.0
S'good'
p1128
I2
tp1129
a(I1196
I8
F-0.875
S'poor'
p1130
I2
tp1131
a(I1308
I8
F-0.5
S'disappointed'
p1132
I2
tp1133
a(I1459
I16
F1.0
S'better'
p1134
I2
tp1135
a(I1516
I10
F-0.625
S'new'
p1136
I2
tp1137
a(I9
I25
F0.75
S'perfect'
p1138
I128
tp1139
a(I9
I45
F0.75
S'fantastic'
p1140
I128
tp1141
a(I9
I54
F0.75
S'easier'
p1142
I128
tp1143
a(I9
I60
F1.0
g1093
I128
tp1144
a(I15
I45
F0.125
g1095
I128
tp1145
a(I21
I0
F-0.625
g775
I128
tp1146
a(I21
I3
F-0.625
g1098
I128
tp1147
a(I21
I4
F0.5
S'narrower'
p1148
I128
tp1149
a(I21
I10
I0
g1100
I128
tp1150
a(I21
I10
F0.5
g1102
I128
tp1151
a(I21
I10
F0.625
g1104
I128
tp1152
a(I29
I11
F0.25
S'yes'
p1153
I128
tp1154
a(I67
I2
F0.75
S'fantastic'
p1155
I128
tp1156
a(I67
I23
F-0.75
g1106
I128
tp1157
a(I71
I6
F0.5
g1108
I128
tp1158
a(I119
I16
F0.875
S'happy'
p1159
I128
tp1160
a(I125
I6
F0.375
g1110
I128
tp1161
a(I241
I0
I0
S'current'
p1162
I128
tp1163
a(I241
I3
F0.5
S'ready'
p1164
I128
tp1165
a(I241
I8
F1.0
S'good'
p1166
I128
tp1167
a(I670
I18
F-0.625
g1112
I128
tp1168
a(I728
I0
F0.125
S'tooth'
p1169
I128
tp1170
a(I877
I0
F0.75
g779
I128
tp1171
a(I877
I0
F-0.625
g781
I128
tp1172
a(I877
I11
F0.5
S'older'
p1173
I128
tp1174
a(I980
I10
F0.5
S'old'
p1175
I128
tp1176
a(I980
I11
F-0.125
g1116
I128
tp1177
a(I980
I13
F0.75
S'perfect'
p1178
I128
tp1179
a(I988
I2
F0.5
g1118
I128
tp1180
a(I1089
I0
I0
g999
I128
tp1181
a(I1121
I0
I0
S'3rd'
p1182
I128
tp1183
a(I1121
I18
F0.5
S'thinner'
p1184
I128
tp1185
a(I1121
I21
F0.375
g1120
I128
tp1186
a(I1131
I15
F0.125
g1122
I128
tp1187
a(I1135
I32
I0
g1003
I128
tp1188
a(I1150
I0
F0.875
g783
I128
tp1189
a(I1181
I2
I0
S'big'
p1190
I128
tp1191
a(I1181
I10
F-0.625
g1126
I128
tp1192
a(I1189
I1
F1.0
g1006
I128
tp1193
a(I1192
I2
I0
g1008
I128
tp1194
a(I1192
I2
F-0.5
g1010
I128
tp1195
a(I1192
I13
F-0.375
S'same'
p1196
I128
tp1197
a(I1196
I8
F1.0
g1128
I128
tp1198
a(I1196
I8
F-0.875
g1130
I128
tp1199
a(I1239
I18
F0.25
S'related'
p1200
I128
tp1201
a(I1239
I18
I0
S'funny'
p1202
I128
tp1203
a(I1297
I0
F-0.625
S'irritating'
p1204
I128
tp1205
a(I1308
I8
F-0.5
g1132
I128
tp1206
a(I1459
I16
F1.0
g1134
I128
tp1207
a(I1516
I10
F-0.625
g1136
I128
tp1208
a(I1519
I6
F1.0
S'better'
p1209
I128
tp1210
a(I1542
I2
I0
S'wish'
p1211
I128
tp1212
as(S'time'
p1213
tp1214
(lp1215
(I9
I0
F-0.5
S'long'
p1216
I389
tp1217
a(I9
I33
I0
S'stunning'
p1218
I389
tp1219
a(I15
I3
F-0.75
S'short'
p1220
I389
tp1221
a(I15
I33
I0
S'most'
p1222
I389
tp1223
a(I71
I10
F-0.5
S'frustrated'
p1224
I389
tp1225
a(I71
I10
F-0.875
S'unhappy'
p1226
I389
tp1227
a(I539
I4
F-0.5
S'long'
p1228
I389
tp1229
a(I645
I5
F-0.125
S'next'
p1230
I389
tp1231
a(I801
I25
I0
S'sure'
p1232
I389
tp1233
a(I1155
I10
F0.625
S'first'
p1234
I389
tp1235
a(I1239
I3
F-0.375
S'same'
p1236
I389
tp1237
a(I1256
I10
F-0.5
S'long'
p1238
I389
tp1239
a(I1256
I13
F-0.125
S'next'
p1240
I389
tp1241
a(I1301
I11
F-0.5
S'long'
p1242
I389
tp1243
a(I1356
I1
F0.75
S'whole'
p1244
I389
tp1245
a(I1364
I7
F-0.375
S'same'
p1246
I389
tp1247
a(I1400
I3
F-0.125
S'present'
p1248
I389
tp1249
a(I1454
I41
I0
S'only'
p1250
I389
tp1251
as(S'total'
p1252
S'wireless'
p1253
tp1254
(lp1255
(I1231
I2
I0
S'total'
p1256
I1
tp1257
a(I1231
I3
I0
S'total'
p1258
I1
tp1259
a(I1231
I11
I0
S'total'
p1260
I1
tp1261
as(S'review'
p1262
S'text'
p1263
S'a'
p1264
tp1265
(lp1266
(I37
I0
F0.75
g686
I0
tp1267
a(I128
I1
I0
g688
I0
tp1268
a(I190
I0
I0
g327
I0
tp1269
a(I222
I2
F-0.625
g691
I0
tp1270
a(I269
I0
F-0.625
g693
I0
tp1271
a(I278
I0
I0
g695
I0
tp1272
a(I345
I0
F0.875
g433
I0
tp1273
a(I516
I0
F0.625
g703
I0
tp1274
a(I596
I0
F0.75
g705
I0
tp1275
a(I645
I1
I0
g707
I0
tp1276
a(I848
I2
I0
g709
I0
tp1277
a(I864
I0
F0.875
g435
I0
tp1278
a(I927
I0
I0
g6
I0
tp1279
a(I1044
I0
F-0.625
g713
I0
tp1280
a(I1124
I2
I0
g717
I0
tp1281
a(I1344
I0
F0.5
g477
I0
tp1282
a(I1404
I0
F0.25
g720
I0
tp1283
a(I1450
I0
F1.0
g14
I0
tp1284
as(S'face'
p1285
S'recognition'
p1286
tp1287
(lp1288
(I15
I23
F0.875
S'solid'
p1289
I13
tp1290
a(I337
I7
F0.875
S'great'
p1291
I13
tp1292
a(I877
I16
F0.875
S'great'
p1293
I13
tp1294
as(S'screen'
p1295
tp1296
(lp1297
(I4
I7
I0
S'brightest'
p1298
I730
tp1299
a(I9
I30
F0.75
S'gorgeous'
p1300
I730
tp1301
a(I9
I35
F0.875
S'decent'
p1302
I730
tp1303
a(I15
I55
I0
S'curved'
p1304
I730
tp1305
a(I18
I13
I0
S'clear'
p1306
I730
tp1307
a(I21
I4
F0.5
S'entire'
p1308
I730
tp1309
a(I21
I6
F0.75
S'whole'
p1310
I730
tp1311
a(I21
I7
F-0.875
S'smaller'
p1312
I730
tp1313
a(I21
I12
F0.75
S'beautiful'
p1314
I730
tp1315
a(I29
I8
F0.75
S'beautiful'
p1316
I730
tp1317
a(I67
I4
I0
S't'
p1318
I730
tp1319
a(I67
I4
I0
S'curved'
p1320
I730
tp1321
a(I67
I42
F0.875
S'great'
p1322
I730
tp1323
a(I74
I4
F1.0
S'better'
p1324
I730
tp1325
a(I140
I2
F0.5
S'responsive'
p1326
I730
tp1327
a(I190
I1
I0
S'curved'
p1328
I730
tp1329
a(I190
I1
I0
S'looks'
p1330
I730
tp1331
a(I190
I1
F0.375
S'feels'
p1332
I730
tp1333
a(I190
I1
F0.875
S'nice'
p1334
I730
tp1335
a(I219
I2
F0.5
S'large'
p1336
I730
tp1337
a(I219
I11
F1.0
S'good'
p1338
I730
tp1339
a(I227
I0
I0
S'bigger'
p1340
I730
tp1341
a(I227
I0
F-0.625
S'flat'
p1342
I730
tp1343
a(I241
I4
I-100
S'nonused'
p1344
I730
tp1345
a(I362
I2
F0.875
S'great'
p1346
I730
tp1347
a(I570
I0
F0.375
S'impressive'
p1348
I730
tp1349
a(I848
I5
F0.375
S'full'
p1350
I730
tp1351
a(I855
I1
F0.75
S'glad'
p1352
I730
tp1353
a(I855
I1
F1.0
S'good'
p1354
I730
tp1355
a(I855
I1
F0.375
S'workable'
p1356
I730
tp1357
a(I877
I12
F0.5
S'touch'
p1358
I730
tp1359
a(I877
I12
F0.5
S'responsive'
p1360
I730
tp1361
a(I1029
I5
I0
S'big'
p1362
I730
tp1363
a(I1043
I0
F-0.625
S'fragile'
p1364
I730
tp1365
a(I1044
I1
F-0.75
S'green'
p1366
I730
tp1367
a(I1082
I2
I-100
S'vid'
p1368
I730
tp1369
a(I1124
I21
I0
S'big'
p1370
I730
tp1371
a(I1124
I21
F0.75
S'beautiful'
p1372
I730
tp1373
a(I1131
I9
I0
S'curved'
p1374
I730
tp1375
a(I1145
I4
F1.0
S'best'
p1376
I730
tp1377
a(I1181
I8
F-0.625
S'new'
p1378
I730
tp1379
a(I1185
I3
F0.75
S'beautiful'
p1380
I730
tp1381
a(I1185
I13
I0
S'curved'
p1382
I730
tp1383
a(I1185
I13
F0.75
S'beautiful'
p1384
I730
tp1385
a(I1185
I18
F1.0
S'best'
p1386
I730
tp1387
a(I1192
I5
F0.75
S'gorgeous'
p1388
I730
tp1389
a(I1208
I3
F-0.875
S'hard'
p1390
I730
tp1391
a(I1256
I7
F0.5
S'entire'
p1392
I730
tp1393
a(I1286
I1
F0.5
S'large'
p1394
I730
tp1395
a(I1286
I1
F0.25
S'usable'
p1396
I730
tp1397
a(I1290
I3
F-0.625
S'unreal'
p1398
I730
tp1399
a(I1298
I1
F-0.75
S'little'
p1400
I730
tp1401
a(I1320
I1
I0
S'big'
p1402
I730
tp1403
a(I1364
I4
F-0.5
S'regular'
p1404
I730
tp1405
a(I1364
I4
F1.0
S'good'
p1406
I730
tp1407
a(I1368
I14
F0.25
S'able'
p1408
I730
tp1409
a(I1368
I14
F0.5
S'accurate'
p1410
I730
tp1411
a(I1368
I14
F-0.625
S'sensitive'
p1412
I730
tp1413
a(I1371
I6
F0.5
S'safe'
p1414
I730
tp1415
a(I1463
I0
F-0.625
S'fragile'
p1416
I730
tp1417
a(I1464
I1
I0
S'big'
p1418
I730
tp1419
a(I1530
I9
F-0.875
S'smaller'
p1420
I730
tp1421
a(I1530
I12
I0
S'advertised'
p1422
I730
tp1423
as(S'samsung'
p1424
S'note'
p1425
tp1426
(lp1427
(I9
I25
F0.75
g1138
I0
tp1428
a(I21
I3
F-0.625
g1098
I0
tp1429
a(I21
I3
F-0.875
S'terrible'
p1430
I0
tp1431
a(I29
I22
I0
S'useful'
p1432
I0
tp1433
a(I71
I6
F0.5
g1108
I0
tp1434
a(I71
I13
I0
g1073
I0
tp1435
a(I84
I0
F-0.5
g1075
I0
tp1436
a(I241
I8
F1.0
g1166
I0
tp1437
a(I1082
I0
F0.5
S'old'
p1438
I0
tp1439
a(I1150
I0
F0.875
g783
I0
tp1440
a(I1519
I6
F1.0
g1209
I0
tp1441
a(I4
I24
F-0.875
S'smart'
p1442
I70
tp1443
a(I9
I21
F0.75
S'perfect'
p1444
I70
tp1445
a(I15
I71
F-0.5
S'several'
p1446
I70
tp1447
a(I21
I3
F-0.875
g1430
I70
tp1448
a(I29
I22
I0
g1432
I70
tp1449
a(I67
I27
F0.75
S'fit'
p1450
I70
tp1451
a(I71
I12
F0.75
S'premium'
p1452
I70
tp1453
a(I71
I13
I0
g1073
I70
tp1454
a(I71
I15
F-0.625
S'last'
p1455
I70
tp1456
a(I84
I0
F-0.5
g1075
I70
tp1457
a(I128
I6
F-0.625
S'other'
p1458
I70
tp1459
a(I234
I1
F0.75
S'easy'
p1460
I70
tp1461
a(I250
I0
F1.0
S'best'
p1462
I70
tp1463
a(I750
I2
I0
S'sure'
p1464
I70
tp1465
a(I759
I0
F1.0
S'best'
p1466
I70
tp1467
a(I801
I9
F-0.778
S'common'
p1468
I70
tp1469
a(I801
I21
F-0.25
S'previous'
p1470
I70
tp1471
a(I851
I3
I0
S'tech'
p1472
I70
tp1473
a(I971
I4
F-0.5
S'lesser'
p1474
I70
tp1475
a(I1032
I7
F-0.625
S'last'
p1476
I70
tp1477
a(I1082
I0
F0.5
g1438
I70
tp1478
a(I1089
I12
I-100
S'ty'
p1479
I70
tp1480
a(I1103
I2
F0.5
S'expensive'
p1481
I70
tp1482
a(I1124
I19
F0.75
S'easy'
p1483
I70
tp1484
a(I1124
I19
I0
S'sure'
p1485
I70
tp1486
a(I1127
I8
F-0.625
S'last'
p1487
I70
tp1488
a(I1140
I1
F-0.625
S'other'
p1489
I70
tp1490
a(I1181
I3
F-0.625
S'other'
p1491
I70
tp1492
a(I1239
I7
F0.5
S'technical'
p1493
I70
tp1494
a(I1244
I3
F-0.5
S'slow'
p1495
I70
tp1496
a(I1244
I6
F0.5
S'vulnerable'
p1497
I70
tp1498
a(I1268
I2
F-0.625
S'useless'
p1499
I70
tp1500
a(I1368
I2
F-0.625
S'other'
p1501
I70
tp1502
a(I1404
I1
I0
S's'
p1503
I70
tp1504
a(I1427
I1
I0
S'diehard'
p1505
I70
tp1506
a(I1454
I32
I0
S's'
p1507
I70
tp1508
a(I1522
I7
I0
S't'
p1509
I70
tp1510
a(I1530
I1
I0
g1077
I70
tp1511
a(I1530
I1
I0
g1079
I70
tp1512
as(S'everything'
p1513
tp1514
(lp1515
(I33
I7
F0.375
S'much'
p1516
I161
tp1517
a(I74
I1
I-100
S'bettar'
p1518
I161
tp1519
a(I178
I1
I0
S't'
p1520
I161
tp1521
a(I178
I1
F-0.5
S'slower'
p1522
I161
tp1523
a(I178
I3
I0
S't'
p1524
I161
tp1525
a(I178
I3
F-0.5
S'slower'
p1526
I161
tp1527
a(I391
I1
F1.0
S'good'
p1528
I161
tp1529
a(I1012
I3
F0.25
S'able'
p1530
I161
tp1531
a(I1124
I6
F-0.625
S'new'
p1532
I161
tp1533
a(I1231
I4
F-0.625
S'seamless'
p1534
I161
tp1535
a(I1231
I4
F0.625
S'fine'
p1536
I161
tp1537
a(I1315
I0
F0.875
S'awesome'
p1538
I161
tp1539
as(S'camera'
p1540
tp1541
(lp1542
(I25
I1
F1.0
S'best'
p1543
I383
tp1544
a(I37
I4
F1.0
S'better'
p1545
I383
tp1546
a(I67
I44
F1.0
S'good'
p1547
I383
tp1548
a(I125
I10
F0.5
S'responsive'
p1549
I383
tp1550
a(I219
I8
F0.625
S'super'
p1551
I383
tp1552
a(I219
I8
I0
S'clear'
p1553
I383
tp1554
a(I241
I5
I0
S'own'
p1555
I383
tp1556
a(I355
I2
F0.25
S'stellar'
p1557
I383
tp1558
a(I355
I2
F0.875
S'great'
p1559
I383
tp1560
a(I384
I1
F0.75
S'perfect'
p1561
I383
tp1562
a(I670
I12
F-0.75
S'disappointing'
p1563
I383
tp1564
a(I670
I17
F1.0
S'better'
p1565
I383
tp1566
a(I670
I17
I0
S'most'
p1567
I383
tp1568
a(I797
I2
F-0.5
S'sluggish'
p1569
I383
tp1570
a(I962
I11
F0.5
S'dual'
p1571
I383
tp1572
a(I962
I13
F1.0
S'best'
p1573
I383
tp1574
a(I988
I2
F0.875
S'great'
p1575
I383
tp1576
a(I988
I2
F0.5
S'dual'
p1577
I383
tp1578
a(I1077
I5
F0.5
S'powerful'
p1579
I383
tp1580
a(I1077
I5
F0.875
S'amazing'
p1581
I383
tp1582
a(I1077
I5
F0.875
S'great'
p1583
I383
tp1584
a(I1089
I4
F0.75
S'outstanding'
p1585
I383
tp1586
a(I1145
I2
F1.0
S'best'
p1587
I383
tp1588
a(I1181
I4
F-0.625
S'new'
p1589
I383
tp1590
a(I1181
I4
F0.5
S'dual'
p1591
I383
tp1592
a(I1185
I4
F1.0
S'best'
p1593
I383
tp1594
a(I1208
I1
F1.0
S'best'
p1595
I383
tp1596
a(I1256
I6
F0.375
S'phenomenal'
p1597
I383
tp1598
a(I1316
I3
I0
S'incredible'
p1599
I383
tp1600
a(I1352
I1
F1.0
S'excellent'
p1601
I383
tp1602
a(I1356
I3
F0.75
S'gorgeous'
p1603
I383
tp1604
a(I1356
I3
F0.875
S'great'
p1605
I383
tp1606
a(I1409
I1
F1.0
S'best'
p1607
I383
tp1608
a(I1454
I14
F0.5
S'high'
p1609
I383
tp1610
a(I1454
I20
I-100
S'youll'
p1611
I383
tp1612
a(I1522
I4
F1.0
S'good'
p1613
I383
tp1614
a(I1530
I6
F1.0
S'good'
p1615
I383
tp1616
a(I1537
I0
I0
S'awful'
p1617
I383
tp1618
a(I1538
I0
I0
S'awful'
p1619
I383
tp1620
as(S'plus'
p1621
tp1622
(lp1623
(I797
I0
F-0.125
S'huge'
p1624
I108
tp1625
as(S'review'
p1626
S'header'
p1627
tp1628
(lp1629
(I186
I0
F1.0
S'better'
p1630
I0
tp1631
a(I851
I0
F-0.5
S'annoying'
p1632
I0
tp1633
a(I992
I0
F-0.625
S'new'
p1634
I0
tp1635
a(I1028
I0
F1.0
S'good'
p1636
I0
tp1637
a(I1139
I0
F0.5
S'expensive'
p1638
I0
tp1639
a(I1289
I0
F1.0
S'best'
p1640
I0
tp1641
a(I1347
I0
F1.0
S'best'
p1642
I0
tp1643
a(I1507
I0
F0.125
S'please'
p1644
I0
tp1645
as(S'tons'
p1646
S'of'
p1647
S'features'
p1648
tp1649
(lp1650
(I1352
I1
F0.5
S'efficient'
p1651
I6
tp1652
a(I15
I31
F-0.625
S'other'
p1653
I192
tp1654
a(I15
I60
I0
S'many'
p1655
I192
tp1656
a(I15
I60
F-0.778
S'common'
p1657
I192
tp1658
a(I15
I60
I0
S'many'
p1659
I192
tp1660
a(I29
I6
I0
S'useful'
p1661
I192
tp1662
a(I63
I14
I0
S'many'
p1663
I192
tp1664
a(I63
I14
F-0.625
S'new'
p1665
I192
tp1666
a(I89
I1
F0.875
S'important'
p1667
I192
tp1668
a(I89
I2
I0
S'critical'
p1669
I192
tp1670
a(I89
I5
F-0.625
S'other'
p1671
I192
tp1672
a(I89
I13
F-0.125
S'such'
p1673
I192
tp1674
a(I93
I0
I0
S'many'
p1675
I192
tp1676
a(I119
I15
F-0.625
S'other'
p1677
I192
tp1678
a(I219
I0
I0
S'useful'
p1679
I192
tp1680
a(I241
I2
F-0.625
S'other'
p1681
I192
tp1682
a(I286
I0
F0.375
S'creative'
p1683
I192
tp1684
a(I355
I3
I0
S'sure'
p1685
I192
tp1686
a(I355
I3
F0.875
S'great'
p1687
I192
tp1688
a(I477
I6
F-0.625
S'new'
p1689
I192
tp1690
a(I539
I3
F-0.625
S'new'
p1691
I192
tp1692
a(I566
I1
F0.875
S'amazing'
p1693
I192
tp1694
a(I626
I1
F0.875
S'great'
p1695
I192
tp1696
a(I670
I32
F1.0
S'best'
p1697
I192
tp1698
a(I692
I0
I0
S'many'
p1699
I192
tp1700
a(I692
I0
F0.875
S'amazing'
p1701
I192
tp1702
a(I855
I1
F0.25
S'instinctive'
p1703
I192
tp1704
a(I855
I1
F0.375
S'impressive'
p1705
I192
tp1706
a(I988
I2
I0
S'more'
p1707
I192
tp1708
a(I1077
I5
I0
S'many'
p1709
I192
tp1710
a(I1077
I5
F0.5
S'slim'
p1711
I192
tp1712
a(I1103
I13
F0.875
S'nicest'
p1713
I192
tp1714
a(I1121
I4
F-0.625
S'new'
p1715
I192
tp1716
a(I1121
I4
I0
S'few'
p1717
I192
tp1718
a(I1121
I4
F-0.125
S'such'
p1719
I192
tp1720
a(I1135
I22
F-0.625
S'new'
p1721
I192
tp1722
a(I1181
I3
I0
S'useful'
p1723
I192
tp1724
a(I1181
I5
F-0.25
S'latest'
p1725
I192
tp1726
a(I1181
I5
F-0.75
S'dark'
p1727
I192
tp1728
a(I1181
I6
I0
S'more'
p1729
I192
tp1730
a(I1244
I9
I0
S'unnecessary'
p1731
I192
tp1732
a(I1450
I0
F-0.5
S'adhesive'
p1733
I192
tp1734
a(I1454
I22
F-0.625
S'forced'
p1735
I192
tp1736
a(I1458
I1
F0.875
S'great'
p1737
I192
tp1738
a(I1459
I0
F0.875
S'great'
p1739
I192
tp1740
a(I1508
I0
F-0.625
S'other'
p1741
I192
tp1742
a(I1508
I10
F-0.625
S'other'
p1743
I192
tp1744
a(I1508
I10
F-0.625
S'quite'
p1745
I192
tp1746
a(I1508
I10
F0.875
S'nice'
p1747
I192
tp1748
as(S'headphone'
p1749
S'jack'
p1750
tp1751
(lp1752
(I1208
I8
I0
S'mm'
p1753
I23
tp1754
as(S'button'
p1755
tp1756
(lp1757
(I67
I12
F0.375
S'much'
p1758
I202
tp1759
a(I67
I12
F-0.125
S'back'
p1760
I202
tp1761
a(I67
I13
I0
S'virtual'
p1762
I202
tp1763
a(I67
I27
F0.125
S'dedicated'
p1764
I202
tp1765
a(I219
I8
I0
S't'
p1766
I202
tp1767
a(I877
I13
F0.75
S'whole'
p1768
I202
tp1769
a(I1121
I9
F0.75
S'due'
p1770
I202
tp1771
a(I1131
I5
F0.625
S'close'
p1772
I202
tp1773
a(I1316
I7
F-0.125
S'next'
p1774
I202
tp1775
a(I1316
I7
F-0.125
S'delete'
p1776
I202
tp1777
a(I1427
I6
F-0.875
S'hard'
p1778
I202
tp1779
as(S'feature'
p1780
tp1781
(lp1782
(I4
I8
F0.875
S'important'
p1783
I302
tp1784
a(I4
I8
F-0.375
S'top'
p1785
I302
tp1786
a(I9
I37
F-0.75
S'dim'
p1787
I302
tp1788
a(I9
I49
F0.875
S'important'
p1789
I302
tp1790
a(I15
I26
F0.875
S'great'
p1791
I302
tp1792
a(I71
I8
F0.25
S'basic'
p1793
I302
tp1794
a(I89
I3
I0
S'critical'
p1795
I302
tp1796
a(I1121
I8
F0.5
S'dual'
p1797
I302
tp1798
a(I1181
I19
F-0.625
S'new'
p1799
I302
tp1800
a(I1256
I10
F-0.75
S'single'
p1801
I302
tp1802
a(I1256
I10
F-0.625
S'new'
p1803
I302
tp1804
a(I1256
I10
F0.625
S'innovative'
p1805
I302
tp1806
a(I1423
I5
F0.25
S'particular'
p1807
I302
tp1808
as(S'review'
p1809
S'text'
p1810
S've'
p1811
tp1812
(lp1813
(I190
I0
I0
g327
I0
tp1814
a(I278
I0
I0
g695
I0
tp1815
a(I458
I0
F0.75
g329
I0
tp1816
a(I927
I0
I0
g6
I0
tp1817
a(I1068
I0
I0
g8
I0
tp1818
a(I1068
I0
F1.0
g10
I0
tp1819
a(I1124
I2
I0
g717
I0
tp1820
a(I1404
I0
F0.25
g720
I0
tp1821
a(I1450
I0
F1.0
g14
I0
tp1822
as(S'works'
p1823
tp1824
(lp1825
(I15
I63
F0.625
S'fine'
p1826
I186
tp1827
a(I33
I12
F0.5
S'speedy'
p1828
I186
tp1829
as(S'device'
p1830
tp1831
(lp1832
(I4
I21
F0.125
S'mobile'
p1833
I245
tp1834
a(I4
I27
F-0.75
S'slippery'
p1835
I245
tp1836
a(I15
I1
F-0.625
S'thrilled'
p1837
I245
tp1838
a(I15
I2
F0.75
S'perfect'
p1839
I245
tp1840
a(I15
I21
F0.25
S'spectacular'
p1841
I245
tp1842
a(I15
I22
F-0.625
S'new'
p1843
I245
tp1844
a(I15
I69
F0.875
S'golden'
p1845
I245
tp1846
a(I230
I8
F-0.875
S'hard'
p1847
I245
tp1848
a(I583
I10
I0
S'electronic'
p1849
I245
tp1850
a(I801
I36
F1.0
S'good'
p1851
I245
tp1852
a(I988
I11
F0.875
S'great'
p1853
I245
tp1854
a(I1100
I3
F0.5
S'expensive'
p1855
I245
tp1856
a(I1124
I27
F0.375
S'favorite'
p1857
I245
tp1858
a(I1124
I27
I0
S'own'
p1859
I245
tp1860
a(I1181
I4
F-0.625
S'new'
p1861
I245
tp1862
a(I1244
I1
F1.0
S'best'
p1863
I245
tp1864
a(I1244
I1
I0
S'android'
p1865
I245
tp1866
a(I1244
I1
F1.0
S'best'
p1867
I245
tp1868
a(I1244
I15
F0.625
S'fine'
p1869
I245
tp1870
a(I1247
I3
F-0.625
S'fast'
p1871
I245
tp1872
as(S'call'
p1873
tp1874
(lp1875
(I71
I2
I0
S'least'
p1876
I216
tp1877
as(S'note'
p1878
g771
g1264
tp1879
(lp1880
(I9
I60
F1.0
g1093
I2
tp1881
a(I15
I45
F0.125
g1095
I2
tp1882
a(I21
I0
F-0.625
g775
I2
tp1883
a(I21
I3
F-0.625
g1098
I2
tp1884
a(I67
I23
F-0.75
g1106
I2
tp1885
a(I71
I6
F0.5
g1108
I2
tp1886
a(I125
I6
F0.375
g1110
I2
tp1887
a(I670
I18
F-0.625
g1112
I2
tp1888
a(I877
I0
F0.75
g779
I2
tp1889
a(I877
I0
F-0.625
g781
I2
tp1890
a(I980
I11
F-0.125
g1116
I2
tp1891
a(I988
I2
F0.5
g1118
I2
tp1892
a(I1121
I21
F0.375
g1120
I2
tp1893
a(I1131
I15
F0.125
g1122
I2
tp1894
a(I1135
I32
I0
g1003
I2
tp1895
a(I1150
I0
F0.875
g783
I2
tp1896
a(I1181
I10
F-0.625
g1126
I2
tp1897
a(I1196
I8
F1.0
g1128
I2
tp1898
a(I1196
I8
F-0.875
g1130
I2
tp1899
a(I1308
I8
F-0.5
g1132
I2
tp1900
a(I1459
I16
F1.0
g1134
I2
tp1901
a(I1516
I10
F-0.625
g1136
I2
tp1902
as(S'awesome'
p1903
tp1904
(lp1905
(I1150
I1
F0.625
S'super'
p1906
I89
tp1907
as(S'review'
p1908
S'text'
p1909
g1090
tp1910
(lp1911
(I37
I0
F0.75
g686
I0
tp1912
a(I128
I1
I0
g688
I0
tp1913
a(I190
I0
I0
g327
I0
tp1914
a(I222
I2
F-0.625
g691
I0
tp1915
a(I269
I0
F-0.625
g693
I0
tp1916
a(I278
I0
I0
g695
I0
tp1917
a(I511
I0
I0
g699
I0
tp1918
a(I511
I0
F0.875
g701
I0
tp1919
a(I516
I0
F0.625
g703
I0
tp1920
a(I596
I0
F0.75
g705
I0
tp1921
a(I645
I1
I0
g707
I0
tp1922
a(I848
I2
I0
g709
I0
tp1923
a(I1124
I2
I0
g717
I0
tp1924
a(I1404
I0
F0.25
g720
I0
tp1925
a(I1450
I0
F1.0
g14
I0
tp1926
as(S'apps'
p1927
tp1928
(lp1929
(I15
I25
F0.625
S'certain'
p1930
I192
tp1931
a(I67
I15
I0
S'many'
p1932
I192
tp1933
a(I89
I12
F-0.125
S'such'
p1934
I192
tp1935
a(I222
I1
F-0.625
S'other'
p1936
I192
tp1937
a(I822
I1
I0
S'different'
p1938
I192
tp1939
a(I822
I1
F0.625
S'certain'
p1940
I192
tp1941
a(I962
I8
I0
S'multiple'
p1942
I192
tp1943
a(I1100
I4
I0
S's'
p1944
I192
tp1945
a(I1121
I4
F0.25
S'able'
p1946
I192
tp1947
a(I1121
I4
F0.375
S'favorite'
p1948
I192
tp1949
a(I1124
I5
F0.5
S'old'
p1950
I192
tp1951
a(I1124
I21
F0.875
S'amazing'
p1952
I192
tp1953
a(I1124
I21
I0
S'few'
p1954
I192
tp1955
a(I1135
I15
F0.375
S'favorite'
p1956
I192
tp1957
a(I1256
I6
I0
S'different'
p1958
I192
tp1959
a(I1256
I6
F-0.75
S'open'
p1960
I192
tp1961
a(I1427
I11
F0.625
S'superior'
p1962
I192
tp1963
a(I1427
I11
F0.375
S'available'
p1964
I192
tp1965
a(I1508
I8
F-0.625
S'other'
p1966
I192
tp1967
as(S'amazon'
p1968
tp1969
(lp1970
(I89
I2
I0
S's'
p1971
I224
tp1972
a(I110
I7
F-0.875
S'cheaper'
p1973
I224
tp1974
a(I416
I0
F0.25
S'helpful'
p1975
I224
tp1976
a(I583
I9
I0
S'least'
p1977
I224
tp1978
as.