(dp0
(S'face'
p1
tp2
(lp3
(I17
I12
I0
S'least'
p4
I88
tp5
a(I414
I12
F-0.625
S'new'
p6
I88
tp7
as(S'iphone'
p8
S'x'
p9
S'review'
p10
tp11
(lp12
(I81
I0
F-0.625
S'new'
p13
I0
tp14
a(I213
I62
F-0.625
S'new'
p15
I0
tp16
a(I315
I4
F0.5
S'expensive'
p17
I0
tp18
a(I375
I1
F-0.875
S'upset'
p19
I0
tp20
a(I440
I0
F-1.0
S'worst'
p21
I0
tp22
a(I483
I0
F-1.0
S'worst'
p23
I0
tp24
a(I9
I0
I0
S'text'
p25
I0
tp26
a(I9
I0
F0.375
S'satisfied'
p27
I0
tp28
a(I35
I0
I0
S'text'
p29
I0
tp30
a(I77
I0
F1.0
S'best'
p31
I0
tp32
a(I140
I0
I0
S'text'
p33
I0
tp34
a(I158
I0
I0
S'text'
p35
I0
tp36
a(I254
I0
I0
S'text'
p37
I0
tp38
a(I375
I1
F-0.875
g19
I0
tp39
a(I385
I0
F1.0
S'good'
p40
I0
tp41
as(S'battery'
p42
S'life'
p43
tp44
(lp45
(I91
I0
F0.875
S'great'
p46
I117
tp47
a(I213
I53
F0.5
S'largest'
p48
I117
tp49
a(I315
I4
F-0.5
S'longer'
p50
I117
tp51
a(I368
I4
F0.375
S'ok'
p52
I117
tp53
a(I368
I4
F0.875
S'great'
p54
I117
tp55
a(I372
I3
F1.0
S'better'
p56
I117
tp57
a(I368
I4
F0.375
g52
I194
tp58
a(I368
I4
F0.875
g54
I194
tp59
a(I91
I0
F0.875
g46
I280
tp60
a(I213
I53
F0.5
g48
I280
tp61
a(I315
I4
F-0.5
g50
I280
tp62
a(I372
I3
F1.0
g56
I280
tp63
as(S'screen'
p64
tp65
(lp66
(I17
I29
F0.875
S'amazing'
p67
I730
tp68
a(I17
I39
F0.5
S'larger'
p69
I730
tp70
a(I17
I40
F0.875
S'amazing'
p71
I730
tp72
a(I77
I0
F1.0
S'best'
p73
I730
tp74
a(I77
I0
F1.0
S'excellent'
p75
I730
tp76
a(I213
I9
F0.625
S'vibrant'
p77
I730
tp78
a(I213
I9
I0
S'clear'
p79
I730
tp80
a(I213
I10
F0.5
S'larger'
p81
I730
tp82
a(I213
I23
I0
S'additional'
p83
I730
tp84
a(I213
I23
F-0.625
S'real'
p85
I730
tp86
a(I213
I67
F0.75
S'fantastic'
p87
I730
tp88
a(I310
I2
F0.375
S'full'
p89
I730
tp90
a(I315
I4
F0.5
S'larger'
p91
I730
tp92
a(I315
I10
F0.75
S'beautiful'
p93
I730
tp94
a(I426
I29
I0
S'durable'
p95
I730
tp96
a(I487
I3
F0.75
S'beautiful'
p97
I730
tp98
as(S'reviews'
p99
tp100
(lp101
(I315
I4
F-0.875
S'negative'
p102
I467
tp103
as(S'everything'
p104
tp105
(lp106
(I17
I9
F0.75
S'easy'
p107
I161
tp108
a(I45
I0
F0.75
S'perfect'
p109
I161
tp110
a(I240
I0
F0.875
S'great'
p111
I161
tp112
a(I249
I0
F0.625
S'fine'
p113
I161
tp114
a(I273
I0
F0.75
S'perfect'
p115
I161
tp116
a(I368
I9
F0.375
S'much'
p117
I161
tp118
as(S'url'
p119
S'http'
p120
S'www'
p121
tp122
(lp123
(I56
I0
I0
S'url'
p124
I0
tp125
a(I115
I0
I0
S'url'
p126
I0
tp127
a(I174
I0
I0
S'url'
p128
I0
tp129
a(I233
I0
I0
S'url'
p130
I0
tp131
a(I293
I0
I0
S'url'
p132
I0
tp133
a(I351
I0
I0
S'url'
p134
I0
tp135
a(I408
I0
I0
S'url'
p136
I0
tp137
a(I462
I0
I0
S'url'
p138
I0
tp139
a(I521
I0
I0
S'url'
p140
I0
tp141
a(I56
I0
I0
g124
I0
tp142
a(I115
I0
I0
g126
I0
tp143
a(I174
I0
I0
g128
I0
tp144
a(I233
I0
I0
g130
I0
tp145
a(I293
I0
I0
g132
I0
tp146
a(I351
I0
I0
g134
I0
tp147
a(I408
I0
I0
g136
I0
tp148
a(I462
I0
I0
g138
I0
tp149
a(I521
I0
I0
g140
I0
tp150
a(I56
I0
I0
g124
I0
tp151
a(I115
I0
I0
g126
I0
tp152
a(I174
I0
I0
g128
I0
tp153
a(I233
I0
I0
g130
I0
tp154
a(I293
I0
I0
g132
I0
tp155
a(I351
I0
I0
g134
I0
tp156
a(I408
I0
I0
g136
I0
tp157
a(I462
I0
I0
g138
I0
tp158
a(I521
I0
I0
g140
I0
tp159
as(S'camera'
p160
tp161
(lp162
(I205
I1
F1.0
S'good'
p163
I383
tp164
a(I213
I33
F0.5
S'powerful'
p165
I383
tp166
a(I213
I33
F-0.625
S'new'
p167
I383
tp168
a(I368
I4
F0.75
S'outstanding'
p169
I383
tp170
a(I414
I14
I0
S'incredible'
p171
I383
tp172
a(I414
I20
F1.0
S'good'
p173
I383
tp174
a(I414
I20
F1.0
S'better'
p175
I383
tp176
a(I414
I32
F0.875
S'great'
p177
I383
tp178
as(S'iphone'
p179
S'7'
p180
S'plus'
p181
tp182
(lp183
(I213
I10
F0.5
S'old'
p184
I2
tp185
a(I213
I53
F-0.625
S'new'
p186
I2
tp187
as(S'review'
p188
S'header'
p189
tp190
(lp191
(I129
I0
F0.875
S'amazing'
p192
I0
tp193
a(I134
I0
F0.875
S'great'
p194
I0
tp195
a(I331
I0
F0.375
S'spiffy'
p196
I0
tp197
a(I397
I0
F1.0
S'better'
p198
I0
tp199
a(I439
I0
F-1.0
S'worst'
p200
I0
tp201
as(S'quality'
p202
tp203
(lp204
(I91
I0
F0.875
S'great'
p205
I157
tp206
a(I91
I0
I0
S'screen'
p207
I157
tp208
a(I213
I47
I0
S'audio'
p209
I157
tp210
a(I372
I3
F1.0
S'better'
p211
I157
tp212
a(I414
I20
I0
S'incredible'
p213
I157
tp214
a(I426
I27
F1.0
S'better'
p215
I157
tp216
a(I479
I1
F-0.625
S'horrible'
p217
I157
tp218
as(S'product'
p219
tp220
(lp221
(I73
I0
F0.875
S'awesome'
p222
I408
tp223
a(I158
I0
F1.0
S'excellent'
p224
I408
tp225
a(I158
I0
F0.875
S'great'
p226
I408
tp227
a(I430
I7
F0.875
S'happy'
p228
I408
tp229
a(I440
I1
F-1.0
S'worst'
p230
I408
tp231
as(S'apple'
p232
tp233
(lp234
(I17
I24
F1.0
S'best'
p235
I54
tp236
a(I17
I27
I0
S's'
p237
I54
tp238
a(I213
I2
F0.5
S'familiar'
p239
I54
tp240
a(I310
I0
I-100
S'u201cfanboy'
p241
I54
tp242
a(I310
I0
I0
S'more'
p243
I54
tp244
a(I375
I6
I0
S's'
p245
I54
tp246
a(I418
I19
I0
S'dealt'
p247
I54
tp248
as(S'perfect'
p249
S'condition'
p250
tp251
(lp252
(I4
I0
F0.75
S'perfect'
p253
I17
tp254
a(I4
I0
F0.75
S'perfect'
p255
I17
tp256
a(I30
I0
F0.75
S'perfect'
p257
I17
tp258
a(I30
I0
F0.75
S'perfect'
p259
I17
tp260
a(I31
I0
F0.75
S'perfect'
p261
I17
tp262
a(I31
I0
F0.75
S'perfect'
p263
I17
tp264
a(I31
I0
F-0.5
S'original'
p265
I17
tp266
as(S'design'
p267
tp268
(lp269
(I213
I51
I0
S'normal'
p270
I88
tp271
a(I368
I4
F0.75
S'beautiful'
p272
I88
tp273
a(I422
I1
I0
S'massive'
p274
I88
tp275
a(I426
I4
I-100
S'u201cto'
p276
I88
tp277
a(I426
I4
F1.0
S'best'
p278
I88
tp279
as(S'display'
p280
tp281
(lp282
(I368
I4
F0.875
S'amazing'
p283
I151
tp284
a(I414
I25
F0.75
S'beautiful'
p285
I151
tp286
as(S'wireless'
p287
S'charging'
p288
tp289
(lp290
(I422
I6
I0
S'wireless'
p291
I29
tp292
as(S'new'
p293
S'iphone'
p294
g9
tp295
(lp296
(I81
I0
F-0.625
g13
I1
tp297
a(I213
I5
F-0.625
S'new'
p298
I1
tp299
a(I213
I5
F0.5
S'old'
p300
I1
tp301
a(I213
I5
F-0.625
S'nearby'
p302
I1
tp303
a(I213
I7
F-0.625
S'new'
p304
I1
tp305
a(I213
I25
F-0.625
S'new'
p306
I1
tp307
a(I213
I25
F0.375
S'available'
p308
I1
tp309
a(I213
I53
F-0.625
g186
I1
tp310
a(I213
I57
F-0.625
S'new'
p311
I1
tp312
a(I213
I62
F-0.625
g15
I1
tp313
a(I426
I21
F-0.625
S'new'
p314
I1
tp315
a(I81
I0
F-0.625
g13
I2
tp316
a(I213
I5
F-0.625
g298
I2
tp317
a(I213
I5
F0.5
g300
I2
tp318
a(I213
I5
F-0.625
g302
I2
tp319
a(I213
I7
F-0.625
g304
I2
tp320
a(I213
I25
F-0.625
g306
I2
tp321
a(I213
I25
F0.375
g308
I2
tp322
a(I213
I53
F-0.625
g186
I2
tp323
a(I213
I57
F-0.625
g311
I2
tp324
a(I213
I62
F-0.625
g15
I2
tp325
a(I315
I3
F-0.625
S'new'
p326
I2
tp327
a(I426
I21
F-0.625
g314
I2
tp328
a(I17
I33
I0
S'iconic'
p329
I6
tp330
a(I26
I1
F-0.5
S'original'
p331
I6
tp332
a(I81
I0
F-0.625
g13
I6
tp333
a(I213
I5
F-0.625
g298
I6
tp334
a(I213
I5
F0.5
g300
I6
tp335
a(I213
I5
F-0.625
g302
I6
tp336
a(I213
I7
F-0.625
g304
I6
tp337
a(I213
I10
F0.5
g184
I6
tp338
a(I213
I15
F0.5
S'similar'
p339
I6
tp340
a(I213
I25
F-0.625
g306
I6
tp341
a(I213
I25
F0.375
g308
I6
tp342
a(I213
I53
F-0.625
g186
I6
tp343
a(I213
I57
F-0.625
g311
I6
tp344
a(I213
I62
F-0.625
g15
I6
tp345
a(I310
I1
F0.875
S'great'
p346
I6
tp347
a(I315
I4
F0.5
g17
I6
tp348
a(I375
I1
F-0.875
g19
I6
tp349
a(I414
I27
F-0.5
S'long'
p350
I6
tp351
a(I414
I33
F-0.125
S'next'
p352
I6
tp353
a(I414
I33
F-0.75
S'outdated'
p354
I6
tp355
a(I426
I21
F-0.625
g314
I6
tp356
a(I426
I26
F-0.125
S'glass'
p357
I6
tp358
a(I440
I0
F-1.0
g21
I6
tp359
a(I483
I0
F-1.0
g23
I6
tp360
a(I490
I5
F0.875
S'happy'
p361
I6
tp362
a(I17
I7
F-0.75
S'difficult'
p363
I64
tp364
a(I17
I8
F-0.625
S'annoyed'
p365
I64
tp366
a(I17
I8
F0.5
S'older'
p367
I64
tp368
a(I17
I27
F-0.875
S'cheaper'
p369
I64
tp370
a(I17
I33
I0
g329
I64
tp371
a(I26
I1
F-0.5
g331
I64
tp372
a(I81
I0
F-0.625
g13
I64
tp373
a(I213
I5
F-0.625
g298
I64
tp374
a(I213
I5
F0.5
g300
I64
tp375
a(I213
I5
F-0.625
g302
I64
tp376
a(I213
I7
F-0.625
g304
I64
tp377
a(I213
I10
F0.5
g184
I64
tp378
a(I213
I15
F0.5
g339
I64
tp379
a(I213
I25
F-0.625
g306
I64
tp380
a(I213
I25
F0.375
g308
I64
tp381
a(I213
I53
F-0.625
g186
I64
tp382
a(I213
I57
F-0.625
g311
I64
tp383
a(I213
I62
F-0.625
g15
I64
tp384
a(I315
I3
F-0.625
g326
I64
tp385
a(I315
I4
F0.5
g17
I64
tp386
a(I315
I8
F0.5
S'old'
p387
I64
tp388
a(I414
I31
F0.5
S'avid'
p389
I64
tp390
a(I414
I33
F-0.125
g352
I64
tp391
a(I414
I33
F-0.75
g354
I64
tp392
a(I422
I1
F0.625
S'replaceable'
p393
I64
tp394
a(I422
I1
F-0.125
S'such'
p395
I64
tp396
a(I426
I13
F-0.25
S'previous'
p397
I64
tp398
a(I426
I21
F-0.625
g314
I64
tp399
a(I440
I0
F-1.0
g21
I64
tp400
a(I483
I0
F-1.0
g23
I64
tp401
a(I490
I5
F0.875
g361
I64
tp402
as(S'device'
p403
tp404
(lp405
(I17
I23
I0
S't'
p406
I245
tp407
a(I17
I23
F0.375
S'full'
p408
I245
tp409
a(I414
I17
F0.375
S'much'
p410
I245
tp411
a(I418
I3
F-0.625
S'new'
p412
I245
tp413
a(I418
I4
F-0.625
S'new'
p414
I245
tp415
as(S'review'
p416
S'text'
p417
S'great'
p418
tp419
(lp420
(I86
I0
F0.875
S'great'
p421
I0
tp422
a(I91
I0
I0
S'build'
p423
I0
tp424
a(I158
I0
I0
g35
I0
tp425
a(I86
I0
F0.875
g421
I0
tp426
a(I91
I0
I0
g423
I0
tp427
a(I9
I0
I0
g25
I0
tp428
a(I9
I0
F0.375
g27
I0
tp429
a(I35
I0
I0
g29
I0
tp430
a(I63
I0
F0.875
S'nice'
p431
I0
tp432
a(I73
I0
F0.875
S'nice'
p433
I0
tp434
a(I77
I0
F1.0
g31
I0
tp435
a(I86
I0
F0.875
g421
I0
tp436
a(I140
I0
I0
g33
I0
tp437
a(I158
I0
I0
g35
I0
tp438
a(I254
I0
I0
g37
I0
tp439
a(I331
I1
F0.875
S'nice'
p440
I0
tp441
a(I385
I0
F1.0
g40
I0
tp442
a(I91
I0
I0
g423
I500
tp443
as(S'price'
p444
tp445
(lp446
(I315
I4
I0
S'few'
p447
I410
tp448
a(I375
I2
I0
S'ridiculous'
p449
I410
tp450
as(S'time'
p451
tp452
(lp453
(I17
I14
F0.625
S'first'
p454
I389
tp455
a(I213
I31
I0
S'only'
p456
I389
tp457
a(I418
I17
F-0.125
S'next'
p458
I389
tp459
a(I418
I17
F0.375
S'available'
p460
I389
tp461
as(S'technology'
p462
tp463
(lp464
(I315
I2
F-0.25
S'latest'
p465
I42
tp466
a(I315
I2
F0.875
S'greatest'
p467
I42
tp468
a(I414
I11
F0.625
S'innovative'
p469
I42
tp470
a(I414
I29
F-0.625
S'new'
p471
I42
tp472
a(I414
I32
I-100
S'u2018evolutionary'
p473
I42
tp474
a(I426
I14
F0.5
S'avid'
p475
I42
tp476
as(S'glass'
p477
S'back'
p478
tp479
(lp480
(I213
I67
F0.75
S'beautiful'
p481
I17
tp482
a(I213
I68
F-0.125
S'back'
p483
I17
tp484
a(I421
I0
F-0.875
S'unacceptable'
p485
I17
tp486
a(I422
I0
F-0.625
S'fragile'
p487
I17
tp488
as.