(dp0
(S'battery'
p1
S'life'
p2
tp3
(lp4
(I4
I31
F-0.375
S'same'
p5
I117
tp6
a(I255
I21
F-0.625
S'other'
p7
I117
tp8
a(I319
I1
F0.5
S'responsive'
p9
I117
tp10
a(I319
I1
F-0.25
S'battery'
p11
I117
tp12
a(I319
I1
F0.875
S'great'
p13
I117
tp14
as(S'0'
p15
S'review'
p16
S'header'
p17
tp18
(lp19
(I87
I0
F-0.5
S'unlocked'
p20
I0
tp21
a(I87
I0
F-0.125
S'mine'
p22
I0
tp23
a(I87
I0
F-0.5
g20
I0
tp24
a(I87
I0
F-0.125
g22
I0
tp25
a(I352
I0
F-0.25
S'boring'
p26
I0
tp27
as(S'screen'
p28
tp29
(lp30
(I263
I3
F-1.0
S'worse'
p31
I730
tp32
a(I274
I106
F-0.75
S'little'
p33
I730
tp34
a(I274
I106
F0.5
S'larger'
p35
I730
tp36
a(I307
I1
F-0.75
S'impossible'
p37
I730
tp38
as(S'url'
p39
S'http'
p40
S'www'
p41
tp42
(lp43
(I53
I0
I0
S'url'
p44
I0
tp45
a(I113
I0
I0
S'url'
p46
I0
tp47
a(I174
I0
I0
S'url'
p48
I0
tp49
a(I234
I0
I0
S'url'
p50
I0
tp51
a(I289
I0
I0
S'url'
p52
I0
tp53
a(I342
I0
I0
S'url'
p54
I0
tp55
a(I379
I0
I0
S'url'
p56
I0
tp57
a(I53
I0
I0
g44
I0
tp58
a(I113
I0
I0
g46
I0
tp59
a(I174
I0
I0
g48
I0
tp60
a(I234
I0
I0
g50
I0
tp61
a(I289
I0
I0
g52
I0
tp62
a(I342
I0
I0
g54
I0
tp63
a(I379
I0
I0
g56
I0
tp64
a(I53
I0
I0
g44
I0
tp65
a(I113
I0
I0
g46
I0
tp66
a(I174
I0
I0
g48
I0
tp67
a(I234
I0
I0
g50
I0
tp68
a(I289
I0
I0
g52
I0
tp69
a(I342
I0
I0
g54
I0
tp70
a(I379
I0
I0
g56
I0
tp71
as(S'camera'
p72
tp73
(lp74
(I12
I4
I0
S'more'
p75
I383
tp76
a(I12
I4
I0
S'clear'
p77
I383
tp78
a(I12
I4
I0
S'grainy'
p79
I383
tp80
a(I21
I1
F1.0
S'good'
p81
I383
tp82
a(I21
I1
F1.0
S'good'
p83
I383
tp84
a(I255
I15
F1.0
S'best'
p85
I383
tp86
a(I259
I1
F1.0
S'better'
p87
I383
tp88
a(I274
I35
I0
S'main'
p89
I383
tp90
as(S'iphone'
p91
S'8'
p92
S'plus'
p93
tp94
(lp95
(I4
I0
F-0.625
S'new'
p96
I4
tp97
a(I4
I9
F0.5
S'old'
p98
I4
tp99
a(I4
I28
F-0.625
S'new'
p100
I4
tp101
a(I8
I0
F0.875
S'great'
p102
I4
tp103
a(I8
I0
F-0.625
S'new'
p104
I4
tp105
a(I255
I21
F-0.375
S'top'
p106
I4
tp107
a(I274
I0
F0.125
S'ios'
p108
I4
tp109
a(I4
I0
F-0.625
g96
I64
tp110
a(I4
I9
F0.5
g98
I64
tp111
a(I4
I19
F0.5
S'older'
p112
I64
tp113
a(I4
I27
I0
S'most'
p114
I64
tp115
a(I4
I28
F-0.625
g100
I64
tp116
a(I8
I0
F0.875
g102
I64
tp117
a(I8
I0
F-0.625
g104
I64
tp118
a(I17
I0
F-0.625
S'other'
p119
I64
tp120
a(I255
I19
I0
S'clear'
p121
I64
tp122
a(I255
I21
F-0.375
g106
I64
tp123
a(I270
I0
I0
S't'
p124
I64
tp125
a(I270
I0
F1.0
S'best'
p126
I64
tp127
a(I270
I4
F-0.875
S'cheaper'
p128
I64
tp129
a(I270
I5
F0.5
S'old'
p130
I64
tp131
a(I270
I11
F-0.375
S'same'
p132
I64
tp133
a(I270
I13
I0
S'most'
p134
I64
tp135
a(I274
I0
F0.125
g108
I64
tp136
a(I295
I3
F0.125
S'don'
p137
I64
tp138
a(I302
I0
F0.25
S'worth'
p139
I64
tp140
a(I303
I12
F-0.625
S'last'
p141
I64
tp142
as(S'free'
p143
S'sample'
p144
tp145
(lp146
(I363
I0
F-0.75
S'free'
p147
I6
tp148
a(I366
I0
F-0.75
S'free'
p149
I6
tp150
a(I367
I0
F-0.75
S'free'
p151
I6
tp152
as(S'product'
p153
tp154
(lp155
(I204
I0
F0.875
S'awesome'
p156
I408
tp157
a(I307
I5
I-100
S'rockstar'
p158
I408
tp159
as(S'headphone'
p160
S'jack'
p161
tp162
(lp163
(I274
I133
F0.875
S'happy'
p164
I23
tp165
as(S'1'
p166
g15
S'review'
p167
tp168
(lp169
(I87
I1
F-0.5
S'unlocked'
p170
I0
tp171
a(I87
I1
F-0.125
S'mine'
p172
I0
tp173
a(I87
I1
F-0.5
g170
I0
tp174
a(I87
I1
F-0.125
g172
I0
tp175
as(S'voice'
p176
S'dictation'
p177
tp178
(lp179
(I274
I71
F0.25
S'voice'
p180
I5
tp181
as(S'android'
p182
tp183
(lp184
(I255
I3
F1.0
S'better'
p185
I62
tp186
a(I274
I4
I0
S'many'
p187
I62
tp188
a(I274
I5
F0.375
S'favorite'
p189
I62
tp190
a(I274
I62
I0
S'many'
p191
I62
tp192
as(S'true'
p193
S'tone'
p194
tp195
(lp196
(I12
I5
F0.5
S'true'
p197
I3
tp198
a(I270
I6
F0.75
S'wonderful'
p199
I3
tp200
as(S'wide'
p201
S'angle'
p202
tp203
(lp204
(I274
I18
F-0.625
S'wide'
p205
I8
tp206
a(I274
I19
F-0.625
S'wide'
p207
I8
tp208
a(I274
I113
F-0.625
S'wide'
p209
I8
tp210
as(S'review'
p211
S'text'
p212
tp213
(lp214
(I21
I0
I0
S'text'
p215
I0
tp216
a(I83
I0
I0
S'text'
p217
I0
tp218
a(I87
I1
F-0.5
g170
I0
tp219
a(I87
I1
F-0.125
g172
I0
tp220
a(I102
I0
I0
S'text'
p221
I0
tp222
a(I135
I0
F1.0
S'good'
p223
I0
tp224
a(I204
I0
F0.875
S'nice'
p225
I0
tp226
a(I245
I0
F1.0
S'good'
p227
I0
tp228
a(I323
I0
F0.875
S'amazing'
p229
I0
tp230
a(I358
I0
I0
S'text'
p231
I0
tp232
a(I358
I0
F1.0
S'good'
p233
I0
tp234
as(S'time'
p235
tp236
(lp237
(I241
I4
F-0.5
S'long'
p238
I389
tp239
a(I255
I7
F-0.125
S'overall'
p240
I389
tp241
a(I255
I16
F-0.875
S'hard'
p242
I389
tp243
a(I259
I0
F-0.375
S'same'
p244
I389
tp245
as(S'optical'
p246
S'zoom'
p247
tp248
(lp249
(I4
I21
I0
S'optical'
p250
I5
tp251
a(I270
I9
I0
S'optical'
p252
I5
tp253
a(I270
I9
F0.875
S'nice'
p254
I5
tp255
a(I274
I39
I0
S'optical'
p256
I5
tp257
as(S'portrait'
p258
S'mode'
p259
tp260
(lp261
(I4
I23
F-0.625
S'new'
p262
I8
tp263
as.