(dp0
(S'wouldn'
p1
S't'
p2
tp3
(lp4
(I205
I2
I0
S't'
p5
I0
tp6
as(S'iphone'
p7
tp8
(lp9
(I13
I0
F-0.625
S'horrible'
p10
I64
tp11
a(I14
I0
F-0.625
S'horrible'
p12
I64
tp13
a(I45
I0
F-0.875
S'fake'
p14
I64
tp15
a(I62
I1
F-0.875
S'fake'
p16
I64
tp17
a(I75
I0
F-0.5
S'unlocked'
p18
I64
tp19
a(I159
I0
F0.625
S'superior'
p20
I64
tp21
a(I160
I6
F1.0
S'best'
p22
I64
tp23
a(I160
I9
F0.875
S'brilliant'
p24
I64
tp25
a(I208
I2
F0.875
S'happy'
p26
I64
tp27
a(I208
I2
F-0.625
S'new'
p28
I64
tp29
as(S'stars'
p30
tp31
(lp32
(I147
I1
F-0.625
S'last'
p33
I53
tp34
as(S'review'
p35
S'header'
p36
tp37
(lp38
(I208
I0
F0.875
S'great'
p39
I0
tp40
as(S'new'
p41
S'features'
p42
tp43
(lp44
(I194
I0
F-0.625
S'new'
p45
I16
tp46
a(I194
I1
F-0.625
S'new'
p47
I16
tp48
a(I194
I2
F-0.625
S'new'
p49
I16
tp50
as(S'excellent'
p51
S'condition'
p52
tp53
(lp54
(I27
I0
F1.0
S'excellent'
p55
I5
tp56
a(I27
I0
F1.0
S'excellent'
p57
I5
tp58
a(I27
I1
F1.0
S'excellent'
p59
I5
tp60
a(I27
I1
F1.0
S'excellent'
p61
I5
tp62
a(I27
I1
F0.875
S'great'
p63
I5
tp64
as(S'apple'
p65
tp66
(lp67
(I205
I3
I0
S'local'
p68
I54
tp69
a(I212
I6
F1.0
S'best'
p70
I54
tp71
a(I212
I15
F-0.625
S'newest'
p72
I54
tp73
as(S'reviews'
p74
tp75
(lp76
(I197
I3
F-0.5
S'worthless'
p77
I467
tp78
as(S'ude02'
p79
S'ud83d'
p80
tp81
(lp82
(I212
I12
I-100
S'ude02'
p83
I0
tp84
as(S'url'
p85
S'http'
p86
S'www'
p87
tp88
(lp89
(I56
I0
I0
S'url'
p90
I0
tp91
a(I115
I0
I0
S'url'
p92
I0
tp93
a(I175
I0
I0
S'url'
p94
I0
tp95
a(I228
I0
I0
S'url'
p96
I0
tp97
a(I251
I0
I0
S'url'
p98
I0
tp99
a(I56
I0
I0
g90
I0
tp100
a(I115
I0
I0
g92
I0
tp101
a(I175
I0
I0
g94
I0
tp102
a(I228
I0
I0
g96
I0
tp103
a(I251
I0
I0
g98
I0
tp104
a(I56
I0
I0
g90
I0
tp105
a(I115
I0
I0
g92
I0
tp106
a(I175
I0
I0
g94
I0
tp107
a(I228
I0
I0
g96
I0
tp108
a(I251
I0
I0
g98
I0
tp109
as(S'review'
p110
S'text'
p111
tp112
(lp113
(I4
I0
F0.75
S'perfect'
p114
I0
tp115
a(I9
I0
I0
S'text'
p116
I0
tp117
a(I9
I0
F1.0
S'good'
p118
I0
tp119
a(I23
I0
F1.0
S'excellent'
p120
I0
tp121
a(I31
I0
I0
S'text'
p122
I0
tp123
a(I70
I0
F0.875
S'great'
p124
I0
tp125
a(I94
I0
F0.875
S'great'
p126
I0
tp127
a(I137
I0
F0.625
S'first'
p128
I0
tp129
as.