(dp0
(S'review'
p1
S'text'
p2
S'best'
p3
tp4
(lp5
(I386
I0
F1.0
S'best'
p6
I0
tp7
as(S'battery'
p8
S'life'
p9
tp10
(lp11
(I3
I6
F0.875
S'decent'
p12
I117
tp13
a(I3
I8
F0.5
S'similar'
p14
I117
tp15
a(I3
I10
F-0.25
S'battery'
p16
I117
tp17
a(I30
I9
F0.875
S'great'
p18
I117
tp19
a(I557
I3
F0.875
S'great'
p20
I117
tp21
a(I3
I8
F0.5
g14
I280
tp22
a(I7
I11
F0.625
S'removable'
p23
I280
tp24
a(I7
I12
F0.625
S'removable'
p25
I280
tp26
a(I30
I9
F0.875
g18
I280
tp27
as(S'review'
p28
S'text'
p29
S'excellent'
p30
tp31
(lp32
(I352
I0
I0
S'text'
p33
I0
tp34
as(S'brand'
p35
tp36
(lp37
(I3
I30
F-0.625
S'other'
p38
I65
tp39
a(I11
I2
F-0.625
S'new'
p40
I65
tp41
a(I15
I1
F-0.625
S'new'
p42
I65
tp43
a(I26
I2
F-0.625
S'new'
p44
I65
tp45
a(I30
I1
I0
S'described'
p46
I65
tp47
a(I30
I1
F-0.625
S'new'
p48
I65
tp49
a(I148
I0
F-0.625
S'new'
p50
I65
tp51
a(I412
I1
F-0.625
S'new'
p52
I65
tp53
a(I575
I1
F-0.625
S'new'
p54
I65
tp55
as(S'everything'
p56
tp57
(lp58
(I7
I18
F0.375
S'much'
p59
I161
tp60
a(I29
I0
F0.75
S'perfect'
p61
I161
tp62
a(I113
I2
F-0.625
S'new'
p63
I161
tp64
a(I149
I0
I-100
S'ud83e'
p65
I161
tp66
a(I149
I0
I-100
S'udd17'
p67
I161
tp68
as(S'samsung'
p69
tp70
(lp71
(I15
I4
F0.875
S'solid'
p72
I70
tp73
a(I575
I6
I0
S'actual'
p74
I70
tp75
as(S'url'
p76
S'http'
p77
S'www'
p78
tp79
(lp80
(I50
I0
I0
S'url'
p81
I0
tp82
a(I106
I0
I0
S'url'
p83
I0
tp84
a(I161
I0
I0
S'url'
p85
I0
tp86
a(I217
I0
I0
S'url'
p87
I0
tp88
a(I278
I0
I0
S'url'
p89
I0
tp90
a(I337
I0
I0
S'url'
p91
I0
tp92
a(I398
I0
I0
S'url'
p93
I0
tp94
a(I453
I0
I0
S'url'
p95
I0
tp96
a(I511
I0
I0
S'url'
p97
I0
tp98
a(I568
I0
I0
S'url'
p99
I0
tp100
a(I626
I0
I0
S'url'
p101
I0
tp102
a(I50
I0
I0
g81
I0
tp103
a(I106
I0
I0
g83
I0
tp104
a(I161
I0
I0
g85
I0
tp105
a(I217
I0
I0
g87
I0
tp106
a(I278
I0
I0
g89
I0
tp107
a(I337
I0
I0
g91
I0
tp108
a(I398
I0
I0
g93
I0
tp109
a(I453
I0
I0
g95
I0
tp110
a(I511
I0
I0
g97
I0
tp111
a(I568
I0
I0
g99
I0
tp112
a(I626
I0
I0
g101
I0
tp113
a(I50
I0
I0
g81
I0
tp114
a(I106
I0
I0
g83
I0
tp115
a(I161
I0
I0
g85
I0
tp116
a(I217
I0
I0
g87
I0
tp117
a(I278
I0
I0
g89
I0
tp118
a(I337
I0
I0
g91
I0
tp119
a(I398
I0
I0
g93
I0
tp120
a(I453
I0
I0
g95
I0
tp121
a(I511
I0
I0
g97
I0
tp122
a(I568
I0
I0
g99
I0
tp123
a(I626
I0
I0
g101
I0
tp124
a(I50
I0
I0
g81
I210
tp125
a(I106
I0
I0
g83
I210
tp126
a(I161
I0
I0
g85
I210
tp127
a(I217
I0
I0
g87
I210
tp128
a(I278
I0
I0
g89
I210
tp129
a(I337
I0
I0
g91
I210
tp130
a(I398
I0
I0
g93
I210
tp131
a(I453
I0
I0
g95
I210
tp132
a(I511
I0
I0
g97
I210
tp133
a(I568
I0
I0
g99
I210
tp134
a(I626
I0
I0
g101
I210
tp135
as(S'camera'
p136
tp137
(lp138
(I3
I19
F0.875
S'great'
p139
I383
tp140
a(I3
I19
F0.5
S'dual'
p141
I383
tp142
a(I3
I19
F0.625
S'fine'
p143
I383
tp144
a(I3
I22
F0.5
S'dual'
p145
I383
tp146
a(I7
I1
F1.0
S'better'
p147
I383
tp148
a(I30
I13
F0.875
S'amazing'
p149
I383
tp150
a(I303
I1
F0.875
S'great'
p151
I383
tp152
a(I357
I1
F1.0
S'best'
p153
I383
tp154
a(I582
I10
I0
S'main'
p155
I383
tp156
a(I582
I10
F1.0
S'excellent'
p157
I383
tp158
a(I582
I10
I0
S'clear'
p159
I383
tp160
a(I605
I0
F1.0
S'better'
p161
I383
tp162
as(S'galaxy'
p163
tp164
(lp165
(I19
I4
F0.5
S'old'
p166
I51
tp167
as(S'review'
p168
S'header'
p169
S's'
p170
tp171
(lp172
(I81
I0
F0.875
S'great'
p173
I0
tp174
a(I94
I0
F-0.5
S'disappointed'
p175
I0
tp176
a(I243
I0
F0.5
S'dependable'
p177
I0
tp178
a(I265
I0
F1.0
S'best'
p179
I0
tp180
a(I265
I0
F1.0
S'best'
p181
I0
tp182
a(I548
I0
F0.5
S'compatible'
p183
I0
tp184
a(I609
I0
F1.0
S'best'
p185
I0
tp186
a(I81
I0
F0.875
g173
I0
tp187
a(I94
I0
F-0.5
g175
I0
tp188
a(I243
I0
F0.5
g177
I0
tp189
a(I265
I0
F1.0
g179
I0
tp190
a(I265
I0
F1.0
g181
I0
tp191
a(I370
I0
F1.0
S'good'
p192
I0
tp193
a(I548
I0
F0.5
g183
I0
tp194
a(I609
I0
F1.0
g185
I0
tp195
as(S'international'
p196
S'model'
p197
tp198
(lp199
(I26
I8
F-0.5
S'international'
p200
I7
tp201
a(I575
I0
F-0.5
S'international'
p202
I7
tp203
a(I575
I4
F-0.5
S'international'
p204
I7
tp205
a(I575
I5
F0.5
S'touch'
p206
I7
tp207
a(I575
I5
F-0.5
S'international'
p208
I7
tp209
a(I22
I12
I0
S'specific'
p210
I73
tp211
a(I26
I8
F-0.5
g200
I73
tp212
a(I85
I0
F-0.375
S'same'
p213
I73
tp214
a(I299
I1
I0
S'chinese'
p215
I73
tp216
a(I575
I0
F-0.5
g202
I73
tp217
a(I575
I4
F-0.5
g204
I73
tp218
a(I575
I5
F0.5
g206
I73
tp219
a(I575
I5
F-0.5
g208
I73
tp220
as(S'features'
p221
tp222
(lp223
(I22
I9
F-0.125
S'such'
p224
I192
tp225
a(I30
I18
F-0.75
S'single'
p226
I192
tp227
a(I135
I2
F1.0
S'best'
p228
I192
tp229
a(I138
I0
F-0.625
S'new'
p230
I192
tp231
a(I139
I1
F-0.625
S'new'
p232
I192
tp233
a(I582
I3
I0
S'many'
p234
I192
tp235
a(I582
I3
F0.5
S'unique'
p236
I192
tp237
a(I605
I0
I0
S'many'
p238
I192
tp239
a(I605
I0
F1.0
S'better'
p240
I192
tp241
as(S'review'
p242
S'text'
p243
S'love'
p244
tp245
(lp246
(I376
I0
F0.875
S'nice'
p247
I0
tp248
a(I376
I0
F0.875
g247
I0
tp249
a(I81
I1
F0.875
S'great'
p250
I0
tp251
a(I229
I0
I0
S'text'
p252
I0
tp253
a(I312
I0
F0.875
S'great'
p254
I0
tp255
a(I352
I0
I0
g33
I0
tp256
a(I371
I0
I0
S'text'
p257
I0
tp258
a(I371
I0
F1.0
S'good'
p259
I0
tp260
a(I386
I0
F1.0
g6
I0
tp261
a(I420
I2
I0
S'text'
p262
I0
tp263
a(I442
I0
I0
S'text'
p264
I0
tp265
a(I476
I0
I0
S'text'
p266
I0
tp267
a(I485
I0
F1.0
S'good'
p268
I0
tp269
a(I490
I0
F0.875
S'great'
p270
I0
tp271
a(I527
I0
I0
S'text'
p272
I0
tp273
a(I531
I0
F-0.5
S'disappointed'
p274
I0
tp275
a(I579
I0
I0
S'anywhere'
p276
I0
tp277
a(I600
I0
F-0.625
S'fragile'
p278
I0
tp279
a(I376
I0
F0.875
g247
I363
tp280
as(S'price'
p281
tp282
(lp283
(I299
I0
I-100
S'shouldn'
p284
I410
tp285
a(I412
I3
F-0.125
S'decreased'
p286
I410
tp287
as(S'dual'
p288
S'sim'
p289
tp290
(lp291
(I3
I0
F0.625
S'fine'
p292
I3
tp293
a(I3
I0
F0.5
S'dual'
p294
I3
tp295
a(I3
I5
F0.625
S'fine'
p296
I3
tp297
a(I3
I5
F0.5
S'dual'
p298
I3
tp299
a(I77
I0
F0.5
S'dual'
p300
I3
tp301
a(I206
I1
F0.5
S'dual'
p302
I3
tp303
a(I438
I0
F0.5
S'dual'
p304
I3
tp305
a(I438
I0
F0.875
S'great'
p306
I3
tp307
a(I552
I2
F0.5
S'dual'
p308
I3
tp309
a(I575
I0
F0.5
S'dual'
p310
I3
tp311
a(I575
I0
F-0.75
S'single'
p312
I3
tp313
as(S'review'
p314
S'header'
p315
S'great'
p316
tp317
(lp318
(I81
I0
F0.875
g173
I0
tp319
a(I81
I0
F0.875
g173
I0
tp320
as(S'seller'
p321
tp322
(lp323
(I15
I5
F0.625
S'pleased'
p324
I82
tp325
a(I30
I1
F0.875
S'great'
p326
I82
tp327
a(I352
I0
F1.0
S'excellent'
p328
I82
tp329
as(S'awesome'
p330
tp331
(lp332
(I7
I19
F0.5
S'utterly'
p333
I89
tp334
as(S'com'
p335
S'product'
p336
tp337
(lp338
(I81
I2
F0.75
S'perfect'
p339
I0
tp340
a(I38
I0
F0.875
S'great'
p341
I408
tp342
a(I39
I2
F0.875
S'awesome'
p343
I408
tp344
a(I81
I2
F0.75
g339
I408
tp345
a(I81
I3
F0.375
S'satisfied'
p346
I408
tp347
a(I177
I1
F0.75
S'fantastic'
p348
I408
tp349
a(I243
I2
F0.625
S'pleased'
p350
I408
tp351
as(S'note'
p352
tp353
(lp354
(I3
I33
F0.5
S'upgrade'
p355
I128
tp356
a(I7
I4
F0.5
S'old'
p357
I128
tp358
a(I30
I7
I0
S'ultra'
p359
I128
tp360
a(I30
I20
F0.25
S'worth'
p361
I128
tp362
a(I84
I0
F1.0
S'best'
p363
I128
tp364
a(I135
I1
I0
S'third'
p365
I128
tp366
a(I135
I1
F0.875
S'note'
p367
I128
tp368
a(I135
I1
F-0.5
S'original'
p369
I128
tp370
a(I135
I4
F0.5
S'old'
p371
I128
tp372
a(I574
I0
F0.75
S'serviceable'
p373
I128
tp374
a(I579
I6
F0.625
S'pleased'
p375
I128
tp376
as(S'review'
p377
S'text'
p378
S'great'
p379
tp380
(lp381
(I81
I1
F0.875
g250
I0
tp382
a(I312
I0
F0.875
g254
I0
tp383
a(I490
I0
F0.875
g270
I0
tp384
a(I540
I0
I0
S'described'
p385
I0
tp386
a(I540
I0
F0.875
S'nice'
p387
I0
tp388
a(I490
I0
F0.875
g270
I0
tp389
a(I540
I0
I0
g385
I0
tp390
a(I540
I0
F0.875
g387
I0
tp391
a(I30
I5
F0.875
S'awesome'
p392
I500
tp393
a(I540
I0
I0
g385
I500
tp394
a(I540
I0
F0.875
g387
I500
tp395
as(S'screen'
p396
tp397
(lp398
(I30
I8
I0
S'big'
p399
I730
tp400
a(I30
I8
F0.75
S'perfect'
p401
I730
tp402
a(I600
I1
F-0.75
S'green'
p403
I730
tp404
as(S'time'
p405
tp406
(lp407
(I582
I12
F0.625
S'first'
p408
I389
tp409
as(S'work'
p410
tp411
(lp412
(I3
I13
F-0.625
S'new'
p413
I611
tp414
as(S'fast'
p415
tp416
(lp417
(I7
I9
F0.5
S'elegant'
p418
I241
tp419
a(I7
I9
F1.0
S'excellent'
p420
I241
tp421
a(I7
I9
F0.5
S'comparable'
p422
I241
tp423
a(I85
I1
F0.625
S'super'
p424
I241
tp425
as.