(dp0
(S'problem'
p1
tp2
(lp3
(I929
I1
I0
S'only'
p4
I191
tp5
a(I1030
I2
F0.5
S'second'
p6
I191
tp7
a(I1122
I4
F0.25
S'consistent'
p8
I191
tp9
a(I1153
I3
F-0.75
S'likely'
p10
I191
tp11
a(I1153
I3
I0
S'touchscreen'
p12
I191
tp13
a(I1153
I3
F-0.75
S'dead'
p14
I191
tp15
a(I1215
I4
F0.25
S'able'
p16
I191
tp17
a(I1215
I4
F0.125
S'intentional'
p18
I191
tp19
a(I1233
I12
F-0.375
S'same'
p20
I191
tp21
as(S'battery'
p22
S'life'
p23
tp24
(lp25
(I4
I60
F1.0
S'good'
p26
I117
tp27
a(I199
I0
F-0.25
S'battery'
p28
I117
tp29
a(I199
I0
F-0.625
S'other'
p30
I117
tp31
a(I264
I5
F0.875
S'decent'
p32
I117
tp33
a(I535
I1
I0
S'lackluster'
p34
I117
tp35
a(I536
I1
I0
S'lackluster'
p36
I117
tp37
a(I586
I6
F1.0
S'good'
p38
I117
tp39
a(I590
I1
F0.875
S'great'
p40
I117
tp41
a(I1034
I5
I0
S'massive'
p42
I117
tp43
a(I1043
I0
F1.0
S'excellent'
p44
I117
tp45
a(I1043
I0
F0.875
S'great'
p46
I117
tp47
a(I1224
I0
F-0.875
S'terrible'
p48
I117
tp49
a(I4
I60
F1.0
g26
I194
tp50
a(I199
I0
F-0.25
g28
I194
tp51
a(I199
I0
F-0.625
g30
I194
tp52
a(I535
I1
I0
g34
I194
tp53
a(I536
I1
I0
g36
I194
tp54
a(I586
I6
F1.0
g38
I194
tp55
a(I1034
I5
I0
g42
I194
tp56
a(I1034
I26
F0.5
S'daily'
p57
I194
tp58
a(I1043
I0
F0.875
g46
I194
tp59
a(I1224
I0
F-0.875
g48
I194
tp60
a(I86
I1
F0.875
S'great'
p61
I280
tp62
a(I86
I1
F0.875
S'great'
p63
I280
tp64
a(I264
I5
F0.875
g32
I280
tp65
a(I410
I0
F1.0
S'good'
p66
I280
tp67
a(I590
I1
F0.875
g40
I280
tp68
a(I1043
I0
F1.0
g44
I280
tp69
a(I1206
I6
F-0.625
S'other'
p70
I280
tp71
a(I1206
I6
F-0.875
S'low'
p72
I280
tp73
as(S'android'
p74
tp75
(lp76
(I264
I9
F-0.625
S'last'
p77
I62
tp78
a(I305
I0
F1.0
S'best'
p79
I62
tp80
a(I802
I2
F0.5
S'concerned'
p81
I62
tp82
a(I999
I2
F1.0
S'better'
p83
I62
tp84
a(I1233
I10
F0.5
S'typical'
p85
I62
tp86
a(I1283
I1
I0
S'normal'
p87
I62
tp88
as(S'ever'
p89
S'review'
p90
tp91
(lp92
(I664
I1
I0
S'text'
p93
I0
tp94
as(S'review'
p95
S'text'
p96
S'everything'
p97
tp98
(lp99
(I134
I1
F0.875
S'great'
p100
I0
tp101
a(I134
I1
F-0.625
S'other'
p102
I0
tp103
a(I351
I1
F0.875
S'great'
p104
I0
tp105
a(I420
I0
F0.875
S'great'
p106
I0
tp107
a(I664
I1
I0
g93
I0
tp108
a(I691
I1
I0
S'more'
p109
I0
tp110
a(I134
I1
F-0.625
g102
I161
tp111
a(I351
I0
F0.875
S'great'
p112
I161
tp113
a(I351
I1
F0.875
g104
I161
tp114
a(I420
I0
F0.875
g106
I161
tp115
a(I691
I0
I0
S'more'
p116
I161
tp117
a(I691
I1
I0
g109
I161
tp118
a(I1011
I6
I0
S'clear'
p119
I161
tp120
a(I1088
I1
F0.375
S'much'
p121
I161
tp122
as(S'price'
p123
tp124
(lp125
(I4
I86
I0
S'more'
p126
I410
tp127
a(I4
I86
F0.375
S'full'
p128
I410
tp129
a(I112
I2
F-0.875
S'lowest'
p130
I410
tp131
a(I112
I2
F1.0
S'best'
p132
I410
tp133
a(I264
I1
F-0.375
S'same'
p134
I410
tp135
a(I635
I3
F0.375
S'ok'
p136
I410
tp137
a(I982
I11
I0
S'current'
p138
I410
tp139
a(I1233
I6
F0.25
S'worth'
p140
I410
tp141
as(S'name'
p142
tp143
(lp144
(I1274
I0
I0
S'different'
p145
I212
tp146
as(S'features'
p147
tp148
(lp149
(I12
I3
F0.75
S'easy'
p150
I192
tp151
a(I116
I0
F0.875
S'awesome'
p152
I192
tp153
a(I437
I2
F-0.5
S'several'
p154
I192
tp155
a(I437
I2
F0.625
S'super'
p156
I192
tp157
a(I437
I2
F0.5
S'powerful'
p158
I192
tp159
a(I594
I4
I0
S'many'
p160
I192
tp161
a(I659
I0
F0.5
S'added'
p162
I192
tp163
a(I660
I2
F0.5
S'added'
p164
I192
tp165
a(I826
I0
F0.625
S'valuable'
p166
I192
tp167
a(I999
I8
I0
S'different'
p168
I192
tp169
a(I1034
I34
I0
S'few'
p170
I192
tp171
a(I1054
I5
F-0.625
S'other'
p172
I192
tp173
a(I1156
I4
F-0.375
S'fancy'
p174
I192
tp175
as(S'samsung'
p176
tp177
(lp178
(I4
I2
I0
S'sure'
p179
I70
tp180
a(I4
I53
F0.875
S'happy'
p181
I70
tp182
a(I12
I1
F-0.5
S'disappointed'
p183
I70
tp184
a(I27
I1
I0
S'many'
p185
I70
tp186
a(I39
I6
F-0.375
S'various'
p187
I70
tp188
a(I62
I2
I0
S'most'
p189
I70
tp190
a(I604
I2
F1.0
S'best'
p191
I70
tp192
a(I631
I2
F-0.5
S'unlocked'
p193
I70
tp194
a(I635
I1
F0.5
S'loyal'
p195
I70
tp196
a(I747
I27
F0.25
S'inclined'
p197
I70
tp198
a(I747
I40
I0
S'german'
p199
I70
tp200
a(I747
I49
I0
S'least'
p201
I70
tp202
a(I830
I0
F0.625
S'aware'
p203
I70
tp204
a(I995
I6
F0.625
S'first'
p205
I70
tp206
a(I999
I0
F-0.5
S'several'
p207
I70
tp208
a(I999
I22
F0.875
S'happy'
p209
I70
tp210
a(I1007
I1
F0.25
S'recent'
p211
I70
tp212
a(I1030
I2
I0
S't'
p213
I70
tp214
a(I1145
I0
I0
S'third'
p215
I70
tp216
a(I1145
I9
F0.5
S'old'
p217
I70
tp218
a(I1311
I4
F-0.5
S'long'
p219
I70
tp220
a(I1311
I5
F1.0
S'better'
p221
I70
tp222
a(I1311
I34
F0.5
S'classical'
p223
I70
tp224
as(S'url'
p225
S'http'
p226
S'www'
p227
tp228
(lp229
(I50
I0
I0
S'url'
p230
I0
tp231
a(I106
I0
I0
S'url'
p232
I0
tp233
a(I160
I0
I0
S'url'
p234
I0
tp235
a(I220
I0
I0
S'url'
p236
I0
tp237
a(I275
I0
I0
S'url'
p238
I0
tp239
a(I332
I0
I0
S'url'
p240
I0
tp241
a(I388
I0
I0
S'url'
p242
I0
tp243
a(I448
I0
I0
S'url'
p244
I0
tp245
a(I504
I0
I0
S'url'
p246
I0
tp247
a(I565
I0
I0
S'url'
p248
I0
tp249
a(I624
I0
I0
S'url'
p250
I0
tp251
a(I681
I0
I0
S'url'
p252
I0
tp253
a(I736
I0
I0
S'url'
p254
I0
tp255
a(I795
I0
I0
S'url'
p256
I0
tp257
a(I855
I0
I0
S'url'
p258
I0
tp259
a(I908
I0
I0
S'url'
p260
I0
tp261
a(I970
I0
I0
S'url'
p262
I0
tp263
a(I1023
I0
I0
S'url'
p264
I0
tp265
a(I1078
I0
I0
S'url'
p266
I0
tp267
a(I1133
I0
I0
S'url'
p268
I0
tp269
a(I1189
I0
I0
S'url'
p270
I0
tp271
a(I1244
I0
I0
S'url'
p272
I0
tp273
a(I1302
I0
I0
S'url'
p274
I0
tp275
a(I1334
I0
I0
S'url'
p276
I0
tp277
a(I50
I0
I0
g230
I0
tp278
a(I106
I0
I0
g232
I0
tp279
a(I160
I0
I0
g234
I0
tp280
a(I220
I0
I0
g236
I0
tp281
a(I275
I0
I0
g238
I0
tp282
a(I332
I0
I0
g240
I0
tp283
a(I388
I0
I0
g242
I0
tp284
a(I448
I0
I0
g244
I0
tp285
a(I504
I0
I0
g246
I0
tp286
a(I565
I0
I0
g248
I0
tp287
a(I624
I0
I0
g250
I0
tp288
a(I681
I0
I0
g252
I0
tp289
a(I736
I0
I0
g254
I0
tp290
a(I795
I0
I0
g256
I0
tp291
a(I855
I0
I0
g258
I0
tp292
a(I908
I0
I0
g260
I0
tp293
a(I970
I0
I0
g262
I0
tp294
a(I1023
I0
I0
g264
I0
tp295
a(I1078
I0
I0
g266
I0
tp296
a(I1133
I0
I0
g268
I0
tp297
a(I1189
I0
I0
g270
I0
tp298
a(I1244
I0
I0
g272
I0
tp299
a(I1302
I0
I0
g274
I0
tp300
a(I1334
I0
I0
g276
I0
tp301
a(I50
I0
I0
g230
I0
tp302
a(I106
I0
I0
g232
I0
tp303
a(I160
I0
I0
g234
I0
tp304
a(I220
I0
I0
g236
I0
tp305
a(I275
I0
I0
g238
I0
tp306
a(I332
I0
I0
g240
I0
tp307
a(I388
I0
I0
g242
I0
tp308
a(I448
I0
I0
g244
I0
tp309
a(I504
I0
I0
g246
I0
tp310
a(I565
I0
I0
g248
I0
tp311
a(I624
I0
I0
g250
I0
tp312
a(I681
I0
I0
g252
I0
tp313
a(I736
I0
I0
g254
I0
tp314
a(I795
I0
I0
g256
I0
tp315
a(I855
I0
I0
g258
I0
tp316
a(I908
I0
I0
g260
I0
tp317
a(I970
I0
I0
g262
I0
tp318
a(I1023
I0
I0
g264
I0
tp319
a(I1078
I0
I0
g266
I0
tp320
a(I1133
I0
I0
g268
I0
tp321
a(I1189
I0
I0
g270
I0
tp322
a(I1244
I0
I0
g272
I0
tp323
a(I1302
I0
I0
g274
I0
tp324
a(I1334
I0
I0
g276
I0
tp325
a(I50
I0
I0
g230
I210
tp326
a(I106
I0
I0
g232
I210
tp327
a(I160
I0
I0
g234
I210
tp328
a(I220
I0
I0
g236
I210
tp329
a(I275
I0
I0
g238
I210
tp330
a(I332
I0
I0
g240
I210
tp331
a(I388
I0
I0
g242
I210
tp332
a(I448
I0
I0
g244
I210
tp333
a(I504
I0
I0
g246
I210
tp334
a(I565
I0
I0
g248
I210
tp335
a(I624
I0
I0
g250
I210
tp336
a(I681
I0
I0
g252
I210
tp337
a(I736
I0
I0
g254
I210
tp338
a(I795
I0
I0
g256
I210
tp339
a(I855
I0
I0
g258
I210
tp340
a(I908
I0
I0
g260
I210
tp341
a(I970
I0
I0
g262
I210
tp342
a(I1023
I0
I0
g264
I210
tp343
a(I1078
I0
I0
g266
I210
tp344
a(I1133
I0
I0
g268
I210
tp345
a(I1189
I0
I0
g270
I210
tp346
a(I1244
I0
I0
g272
I210
tp347
a(I1302
I0
I0
g274
I210
tp348
a(I1334
I0
I0
g276
I210
tp349
as(S'back'
p350
tp351
(lp352
(I8
I1
I0
S'cool'
p353
I267
tp354
as(S'need'
p355
tp356
(lp357
(I599
I11
I0
S't'
p358
I214
tp359
a(I1291
I2
I0
S't'
p360
I214
tp361
as(S'camera'
p362
tp363
(lp364
(I21
I8
F1.0
S'better'
p365
I383
tp366
a(I24
I2
F0.875
S'great'
p367
I383
tp368
a(I31
I2
F-0.5
S'extra'
p369
I383
tp370
a(I62
I5
F0.875
S'great'
p371
I383
tp372
a(I226
I1
F0.875
S'great'
p373
I383
tp374
a(I226
I4
F0.875
S'great'
p375
I383
tp376
a(I363
I4
F0.875
S'awesome'
p377
I383
tp378
a(I586
I2
F0.875
S'awesome'
p379
I383
tp380
a(I599
I11
F-0.5
S'separate'
p381
I383
tp382
a(I784
I8
F0.875
S'great'
p383
I383
tp384
a(I870
I2
F0.5
S'accurate'
p385
I383
tp386
a(I870
I3
F-0.75
S'secondary'
p387
I383
tp388
a(I999
I8
F0.875
S'amazing'
p389
I383
tp390
a(I1004
I4
F1.0
S'good'
p391
I383
tp392
a(I1007
I2
F1.0
S'best'
p393
I383
tp394
a(I1007
I5
F0.875
S'amazing'
p395
I383
tp396
a(I1084
I14
F0.875
S'awesome'
p397
I383
tp398
a(I1088
I1
F0.75
S'gorgeous'
p399
I383
tp400
a(I1088
I1
F0.875
S'great'
p401
I383
tp402
a(I1122
I4
F0.75
S'outstanding'
p403
I383
tp404
a(I1144
I0
F0.625
S'superior'
p405
I383
tp406
a(I1145
I2
F0.625
S'superior'
p407
I383
tp408
a(I1206
I5
F0.875
S'great'
p409
I383
tp410
a(I1233
I4
F1.0
S'better'
p411
I383
tp412
a(I1269
I1
F0.625
S'superior'
p413
I383
tp414
as(S'crazy'
p415
S'option'
p416
tp417
(lp418
(I1311
I40
F0.625
S'crazy'
p419
I4
tp420
a(I1311
I44
F0.5
S'second'
p421
I4
tp422
a(I1311
I44
F0.625
S'crazy'
p423
I4
tp424
a(I784
I4
I0
S'alternative'
p425
I96
tp426
a(I1311
I6
F-0.625
S'other'
p427
I96
tp428
a(I1311
I40
F0.625
g419
I96
tp429
a(I1311
I44
F0.5
g421
I96
tp430
a(I1311
I44
F0.625
g423
I96
tp431
a(I1311
I103
F0.75
S'promising'
p432
I96
tp433
a(I1311
I105
F-0.125
S'such'
p434
I96
tp435
as(S'operating'
p436
S'system'
p437
tp438
(lp439
(I363
I5
F-0.625
S'new'
p440
I14
tp441
as(S'straight'
p442
S'talk'
p443
tp444
(lp445
(I468
I3
I0
S'straight'
p446
I6
tp447
a(I468
I4
I0
S'straight'
p448
I6
tp449
a(I631
I2
I0
S'straight'
p450
I6
tp451
as(S'review'
p452
S'header'
p453
S'very'
p454
tp455
(lp456
(I880
I0
F0.875
S'nice'
p457
I0
tp458
a(I3
I0
I0
S'sure'
p459
I0
tp460
a(I131
I0
F0.625
S'first'
p461
I0
tp462
a(I134
I0
F0.875
S'great'
p463
I0
tp464
a(I241
I0
F0.875
S'great'
p465
I0
tp466
a(I241
I0
F0.875
S'right'
p467
I0
tp468
a(I343
I0
F0.75
S'fantastic'
p469
I0
tp470
a(I705
I0
F0.75
S'beautiful'
p471
I0
tp472
a(I896
I0
I0
S'incredible'
p473
I0
tp474
a(I985
I0
F-0.875
S'ill'
p475
I0
tp476
a(I985
I0
F1.0
S'good'
p477
I0
tp478
a(I1113
I0
F0.375
S'much'
p479
I0
tp480
as(S'reviews'
p481
S'review'
p482
tp483
(lp484
(I594
I9
I0
S'write'
p485
I0
tp486
a(I870
I2
F0.75
S'glowing'
p487
I0
tp488
a(I1156
I4
F-0.625
S'other'
p489
I0
tp490
a(I594
I9
I0
g485
I467
tp491
a(I870
I2
F0.75
g487
I467
tp492
a(I1156
I4
F-0.625
g489
I467
tp493
as(S'quality'
p494
tp495
(lp496
(I4
I62
F-0.125
S'such'
p497
I157
tp498
a(I4
I62
F-0.875
S'low'
p499
I157
tp500
a(I4
I62
F-0.875
S'hard'
p501
I157
tp502
a(I4
I65
F0.875
S'great'
p503
I157
tp504
a(I687
I1
F0.5
S'high'
p505
I157
tp506
a(I747
I8
F1.0
S'excellent'
p507
I157
tp508
a(I784
I8
I0
S'awful'
p509
I157
tp510
a(I784
I8
F-1.0
S'worse'
p511
I157
tp512
a(I977
I3
F0.5
S'higher'
p513
I157
tp514
as(S'headphone'
p515
S'jack'
p516
tp517
(lp518
(I1084
I25
I0
S'ip'
p519
I23
tp520
as(S'button'
p521
tp522
(lp523
(I4
I23
F0.5
S'large'
p524
I202
tp525
a(I8
I1
F1.0
S'good'
p526
I202
tp527
a(I802
I2
F0.375
S'much'
p528
I202
tp529
as(S'apple'
p530
tp531
(lp532
(I4
I0
F-0.375
S'die'
p533
I54
tp534
a(I4
I0
F-0.875
S'hard'
p535
I54
tp536
a(I4
I1
F-0.625
S'other'
p537
I54
tp538
a(I77
I1
F0.875
S'happy'
p539
I54
tp540
a(I355
I3
F0.875
S'amazing'
p541
I54
tp542
a(I377
I1
F-0.25
S'leave'
p543
I54
tp544
a(I784
I1
F-0.75
S'impossible'
p545
I54
tp546
as(S'bixby'
p547
tp548
(lp549
(I27
I9
F-0.125
S'delete'
p550
I46
tp551
a(I27
I9
I0
S'most'
p552
I46
tp553
a(I35
I6
F0.625
S'interested'
p554
I46
tp555
a(I705
I4
F-0.375
S'disable'
p556
I46
tp557
a(I747
I33
F0.25
S'able'
p558
I46
tp559
a(I826
I1
F-0.625
S'useless'
p560
I46
tp561
a(I1034
I33
F-0.625
S'new'
p562
I46
tp563
a(I1110
I9
F0.5
S'personal'
p564
I46
tp565
a(I1145
I10
F-0.5
S'hilarious'
p566
I46
tp567
a(I1269
I5
F-0.75
S'stupid'
p568
I46
tp569
as(S'verizon'
p570
tp571
(lp572
(I348
I0
F0.75
S'easy'
p573
I17
tp574
a(I1097
I0
F-0.75
S'unable'
p575
I17
tp576
a(I1097
I1
I0
S'standard'
p577
I17
tp578
as(S'notifications'
p579
tp580
(lp581
(I929
I1
I0
S'text'
p582
I38
tp583
a(I1311
I3
F-1.0
S'bad'
p584
I38
tp585
a(I1311
I12
F0.75
S'see'
p586
I38
tp587
a(I1311
I14
F-0.875
S'limited'
p588
I38
tp589
a(I1311
I35
I0
S'pebble'
p590
I38
tp591
a(I1311
I48
I0
S'sure'
p592
I38
tp593
a(I1311
I48
I0
S'more'
p594
I38
tp595
a(I1311
I48
I0
S'different'
p596
I38
tp597
as(S'people'
p598
tp599
(lp600
(I4
I22
I0
S'most'
p601
I93
tp602
a(I4
I72
F-0.75
S'stupidest'
p603
I93
tp604
a(I70
I2
F0.5
S'old'
p605
I93
tp606
a(I86
I2
F-0.875
S'unhappy'
p607
I93
tp608
a(I1034
I12
F0.875
S'great'
p609
I93
tp610
a(I1034
I12
F0.625
S'interested'
p611
I93
tp612
as(S'feature'
p613
tp614
(lp615
(I4
I96
F0.875
S'great'
p616
I302
tp617
a(I608
I2
F-0.125
S'swipe'
p618
I302
tp619
a(I995
I36
F0.875
S'nice'
p620
I302
tp621
a(I1034
I20
F0.875
S'great'
p622
I302
tp623
a(I1054
I3
I0
S'only'
p624
I302
tp625
a(I1066
I3
F0.25
S'worth'
p626
I302
tp627
a(I1066
I3
F0.5
S'upgrading'
p628
I302
tp629
as(S'an'
p630
S'iphone'
p631
S'x'
p632
tp633
(lp634
(I4
I54
F-0.625
S'new'
p635
I1
tp636
a(I4
I54
F0.5
S'larger'
p637
I1
tp638
a(I70
I2
F1.0
S'better'
p639
I1
tp640
a(I977
I6
F-0.75
S'blurry'
p641
I1
tp642
a(I1084
I16
I0
S't'
p643
I1
tp644
a(I4
I9
F-0.625
S'new'
p645
I6
tp646
a(I4
I54
F-0.625
g635
I6
tp647
a(I4
I54
F0.5
g637
I6
tp648
a(I70
I2
F1.0
g639
I6
tp649
a(I655
I2
F0.5
S'old'
p650
I6
tp651
a(I977
I6
F-0.75
g641
I6
tp652
a(I1084
I16
I0
g643
I6
tp653
a(I1084
I27
I0
S'ip'
p654
I6
tp655
a(I1145
I0
F-0.5
S'original'
p656
I6
tp657
a(I4
I9
F-0.625
g645
I64
tp658
a(I4
I54
F-0.625
g635
I64
tp659
a(I4
I54
F0.5
g637
I64
tp660
a(I39
I13
F-0.875
S'smaller'
p661
I64
tp662
a(I70
I2
F1.0
g639
I64
tp663
a(I264
I6
F-0.25
S'previous'
p664
I64
tp665
a(I582
I6
F-0.625
S'new'
p666
I64
tp667
a(I603
I0
F1.0
S'better'
p668
I64
tp669
a(I604
I1
F1.0
S'better'
p670
I64
tp671
a(I655
I2
F0.5
g650
I64
tp672
a(I784
I8
F0.5
S'old'
p673
I64
tp674
a(I885
I2
F0.75
S'glad'
p675
I64
tp676
a(I999
I1
I0
S'different'
p677
I64
tp678
a(I999
I15
F0.5
S'true'
p679
I64
tp680
a(I1084
I16
I0
g643
I64
tp681
a(I1114
I4
I0
S'more'
p682
I64
tp683
a(I1114
I4
I0
S'customizing'
p684
I64
tp685
a(I1140
I5
I0
S't'
p686
I64
tp687
a(I1145
I0
F-0.5
g656
I64
tp688
a(I1153
I1
F-0.5
S'slower'
p689
I64
tp690
a(I1311
I16
F1.0
S'good'
p691
I64
tp692
as(S'biggest'
p693
S'complaint'
p694
tp695
(lp696
(I893
I1
I0
S'biggest'
p697
I3
tp698
a(I893
I6
I0
S'biggest'
p699
I3
tp700
as(S'a'
p701
S'long'
p702
S'time'
p703
tp704
(lp705
(I4
I111
F-0.5
S'long'
p706
I11
tp707
a(I594
I1
F-0.5
S'long'
p708
I11
tp709
a(I652
I0
F-0.5
S'long'
p710
I11
tp711
a(I712
I2
F-0.5
S'long'
p712
I11
tp713
a(I1088
I0
F-0.5
S'long'
p714
I11
tp715
a(I1113
I0
F-0.5
S'long'
p716
I11
tp717
a(I4
I111
F-0.5
g706
I15
tp718
a(I594
I1
F-0.5
g708
I15
tp719
a(I652
I0
F-0.5
g710
I15
tp720
a(I712
I2
F-0.5
g712
I15
tp721
a(I1088
I0
F-0.5
g714
I15
tp722
a(I1113
I0
F-0.5
g716
I15
tp723
a(I4
I111
F-0.5
g706
I389
tp724
a(I21
I9
F1.0
S'mean'
p725
I389
tp726
a(I351
I1
F0.625
S'first'
p727
I389
tp728
a(I582
I5
I0
S't'
p729
I389
tp730
a(I594
I1
F-0.5
g708
I389
tp731
a(I652
I0
F-0.5
g710
I389
tp732
a(I712
I2
F-0.5
g712
I389
tp733
a(I977
I13
I0
S'screen'
p734
I389
tp735
a(I1088
I0
F-0.5
g714
I389
tp736
a(I1110
I2
F-0.375
S'same'
p737
I389
tp738
a(I1113
I0
F-0.5
g716
I389
tp739
a(I1251
I1
I0
S'text'
p740
I389
tp741
as(S'review'
p742
S'header'
p743
S'one'
p744
tp745
(lp746
(I134
I0
F0.875
g463
I0
tp747
a(I1113
I0
F0.375
g479
I0
tp748
as(S'works'
p749
tp750
(lp751
(I492
I3
I0
S'french'
p752
I186
tp753
as(S'issue'
p754
tp755
(lp756
(I784
I13
F-0.125
S'huge'
p757
I200
tp758
a(I995
I32
F0.625
S'major'
p759
I200
tp760
a(I995
I32
F-0.25
S'i'
p761
I200
tp762
a(I1007
I4
I0
S's'
p763
I200
tp764
a(I1034
I33
I0
S'only'
p765
I200
tp766
a(I1156
I12
F-0.375
S'same'
p767
I200
tp768
a(I1219
I0
I0
S'only'
p769
I200
tp770
as(S'product'
p771
tp772
(lp773
(I377
I1
F1.0
S'better'
p774
I408
tp775
a(I429
I0
F1.0
S'excellent'
p776
I408
tp777
a(I1097
I0
F0.625
S'fine'
p778
I408
tp779
a(I1168
I0
F-0.75
S'free'
p780
I408
tp781
a(I1168
I0
I0
S'na'
p782
I408
tp783
as(S'galaxy'
p784
S's9'
p785
tp786
(lp787
(I3
I0
F0.875
S'happy'
p788
I4
tp789
a(I4
I2
F0.875
S'happy'
p790
I4
tp791
a(I4
I81
F-0.5
S'unlocked'
p792
I4
tp793
a(I139
I0
F0.875
S'awesome'
p794
I4
tp795
a(I1043
I0
F0.375
S'coral'
p796
I4
tp797
a(I1054
I1
F0.875
S'great'
p798
I4
tp799
a(I4
I81
F-0.5
g792
I51
tp800
a(I543
I0
F1.0
S'best'
p801
I51
tp802
a(I862
I6
F-0.625
S'new'
p803
I51
tp804
a(I1322
I0
F-0.375
S'same'
p805
I51
tp806
as(S'star'
p807
S'review'
p808
S'text'
p809
tp810
(lp811
(I1046
I1
I0
S'text'
p812
I0
tp813
as(S'software'
p814
tp815
(lp816
(I669
I0
I0
S'trash'
p817
I102
tp818
a(I897
I2
F0.375
S'dynamic'
p819
I102
tp820
a(I1004
I5
F-0.125
S'implemented'
p821
I102
tp822
a(I1004
I5
F-0.125
S'such'
p823
I102
tp824
a(I1004
I5
I0
S'user'
p825
I102
tp826
a(I1004
I5
F0.5
S'modifiable'
p827
I102
tp828
a(I1110
I13
I0
S'more'
p829
I102
tp830
a(I1153
I2
F0.75
S'due'
p831
I102
tp832
as(S'note'
p833
tp834
(lp835
(I4
I70
I0
S'more'
p836
I128
tp837
a(I1233
I16
F0.25
S'able'
p838
I128
tp839
as(S'screen'
p840
S'protector'
p841
tp842
(lp843
(I1311
I70
F0.375
S'full'
p844
I51
tp845
a(I4
I7
F0.5
S'large'
p846
I730
tp847
a(I4
I7
F0.75
S'beautiful'
p848
I730
tp849
a(I4
I7
F0.875
S'great'
p850
I730
tp851
a(I27
I6
F0.25
S'usable'
p852
I730
tp853
a(I27
I6
F0.5
S'larger'
p854
I730
tp855
a(I31
I2
I0
S'big'
p856
I730
tp857
a(I35
I3
I0
S'curved'
p858
I730
tp859
a(I35
I3
F-0.625
S'flat'
p860
I730
tp861
a(I35
I3
F0.5
S'practical'
p862
I730
tp863
a(I35
I3
F0.75
S'easier'
p864
I730
tp865
a(I39
I7
F0.375
S'full'
p866
I730
tp867
a(I62
I0
F0.5
S'large'
p868
I730
tp869
a(I282
I0
I0
S'light'
p870
I730
tp871
a(I539
I2
F0.5
S'touch'
p872
I730
tp873
a(I590
I1
F0.875
S'great'
p874
I730
tp875
a(I599
I10
F0.375
S'phenomenal'
p876
I730
tp877
a(I712
I0
F0.875
S'amazing'
p878
I730
tp879
a(I712
I2
F0.875
S'amazing'
p880
I730
tp881
a(I784
I3
F0.5
S'slim'
p882
I730
tp883
a(I784
I3
F0.5
S'shiny'
p884
I730
tp885
a(I784
I3
F0.75
S'beautiful'
p886
I730
tp887
a(I784
I3
F-0.625
S'fast'
p888
I730
tp889
a(I881
I10
F0.75
S'fantastic'
p890
I730
tp891
a(I1088
I1
F1.0
S'good'
p892
I730
tp893
a(I1114
I0
F0.75
S'beautiful'
p894
I730
tp895
a(I1156
I0
F-0.625
S'fragile'
p896
I730
tp897
a(I1156
I7
F-0.375
S'fancy'
p898
I730
tp899
a(I1156
I7
F-0.625
S'fragile'
p900
I730
tp901
a(I1233
I14
F0.875
S'nice'
p902
I730
tp903
a(I1233
I14
F0.375
S'much'
p904
I730
tp905
a(I1279
I2
F-0.75
S'unresponsive'
p906
I730
tp907
a(I1311
I9
I0
S'more'
p908
I730
tp909
a(I1311
I12
F-0.375
S'locked'
p910
I730
tp911
a(I1311
I14
F-0.375
S'locked'
p912
I730
tp913
a(I1311
I14
F0.375
S'full'
p914
I730
tp915
a(I1311
I54
I0
S'curved'
p916
I730
tp917
a(I1311
I70
F0.375
g844
I730
tp918
a(I1315
I10
F-0.625
S'sensitive'
p919
I730
tp920
as(S'coral'
p921
S'blue'
p922
tp923
(lp924
(I543
I1
F0.375
S'coral'
p925
I3
tp926
as(S'thing'
p927
tp928
(lp929
(I4
I34
I0
S'only'
p930
I683
tp931
a(I4
I44
I0
S'only'
p932
I683
tp933
a(I199
I0
I0
S'wish'
p934
I683
tp935
a(I296
I8
I0
S'only'
p936
I683
tp937
a(I747
I36
F0.875
S'important'
p938
I683
tp939
a(I897
I2
I0
S'only'
p940
I683
tp941
a(I995
I27
I0
S'only'
p942
I683
tp943
a(I995
I30
I0
S'only'
p944
I683
tp945
a(I1007
I2
F-0.75
S'single'
p946
I683
tp947
a(I1084
I17
F0.875
S'nice'
p948
I683
tp949
a(I1279
I3
I0
S'darn'
p950
I683
tp951
a(I1279
I3
F0.625
S'frustrating'
p952
I683
tp953
a(I1311
I3
F-0.75
S'perplexed'
p954
I683
tp955
a(I1311
I3
F-0.125
S'such'
p956
I683
tp957
a(I1311
I7
I0
S'only'
p958
I683
tp959
a(I1311
I7
F-1.0
S'worse'
p960
I683
tp961
as(S'sim'
p962
S'card'
p963
tp964
(lp965
(I66
I1
I0
S'activated'
p966
I40
tp967
as(S'update'
p968
tp969
(lp970
(I4
I78
I0
S't'
p971
I100
tp972
a(I784
I1
F-0.625
S'last'
p973
I100
tp974
a(I784
I1
F-0.625
S'final'
p975
I100
tp976
a(I1311
I37
I0
S'software'
p977
I100
tp978
as(S'device'
p979
tp980
(lp981
(I24
I5
F-0.625
S'new'
p982
I245
tp983
a(I131
I3
F0.5
S'old'
p984
I245
tp985
a(I363
I7
F0.625
S'smooth'
p986
I245
tp987
a(I747
I7
F-0.125
S'next'
p988
I245
tp989
a(I747
I47
F-0.875
S'hard'
p990
I245
tp991
a(I747
I48
F0.25
S'refurbished'
p992
I245
tp993
a(I889
I0
F0.875
S'great'
p994
I245
tp995
a(I999
I11
F-0.375
S'same'
p996
I245
tp997
a(I1038
I4
F0.875
S'awesome'
p998
I245
tp999
a(I1206
I7
F0.25
S'able'
p1000
I245
tp1001
a(I1206
I7
F0.75
S'due'
p1002
I245
tp1003
a(I1233
I10
F0.5
S'responsive'
p1004
I245
tp1005
as(S'review'
p1006
S'text'
p1007
S'very'
p1008
tp1009
(lp1010
(I31
I0
I0
S'text'
p1011
I0
tp1012
a(I31
I0
F0.875
S'nice'
p1013
I0
tp1014
a(I86
I0
I0
S'text'
p1015
I0
tp1016
a(I90
I0
I0
S'text'
p1017
I0
tp1018
a(I90
I0
F0.75
S'easy'
p1019
I0
tp1020
a(I134
I1
F0.875
g100
I0
tp1021
a(I488
I0
F0.875
S'happy'
p1022
I0
tp1023
a(I664
I1
I0
g93
I0
tp1024
a(I759
I0
I0
S'text'
p1025
I0
tp1026
a(I759
I0
F1.0
S'good'
p1027
I0
tp1028
a(I1046
I1
I0
g812
I0
tp1029
as(S'sd'
p1030
S'card'
p1031
tp1032
(lp1033
(I652
I2
I0
S'sd'
p1034
I4
tp1035
as(S'ar'
p1036
S'emoji'
p1037
tp1038
(lp1039
(I116
I0
I0
S'camera'
p1040
I0
tp1041
a(I1034
I12
F-0.5
S'fun'
p1042
I0
tp1043
as(S'usb'
p1044
S'c'
p1045
tp1046
(lp1047
(I590
I1
I0
S'light'
p1048
I1
tp1049
as(S'easy'
p1050
tp1051
(lp1052
(I8
I2
I0
S'online'
p1053
I89
tp1054
a(I8
I2
F0.625
S'super'
p1055
I89
tp1056
as(S'review'
p1057
S'text'
p1058
S'great'
p1059
tp1060
(lp1061
(I134
I1
F0.875
g100
I0
tp1062
a(I134
I1
F0.875
g100
I0
tp1063
as(S'1'
p1064
S'star'
p1065
tp1066
(lp1067
(I929
I6
I0
S'sure'
p1068
I210
tp1069
as(S'one'
p1070
S'star'
p1071
S'review'
p1072
tp1073
(lp1074
(I1046
I1
I0
g812
I0
tp1075
as(S'work'
p1076
tp1077
(lp1078
(I862
I9
I0
S't'
p1079
I611
tp1080
a(I1311
I67
F1.0
S'good'
p1081
I611
tp1082
as(S'apps'
p1083
tp1084
(lp1085
(I4
I68
I0
S'text'
p1086
I192
tp1087
a(I4
I91
I0
S'proprietary'
p1088
I192
tp1089
a(I27
I14
F1.0
S'better'
p1090
I192
tp1091
a(I27
I14
F-0.625
S'other'
p1092
I192
tp1093
a(I652
I3
F-0.75
S'open'
p1094
I192
tp1095
a(I652
I3
F0.75
S'due'
p1096
I192
tp1097
a(I1011
I6
I0
S'different'
p1098
I192
tp1099
a(I1030
I3
F-0.125
S'such'
p1100
I192
tp1101
a(I1269
I3
F-0.625
S'other'
p1102
I192
tp1103
as(S'amazon'
p1104
tp1105
(lp1106
(I4
I89
I0
S'more'
p1107
I224
tp1108
as(S'settings'
p1109
tp1110
(lp1111
(I1092
I3
I0
S'layered'
p1112
I59
tp1113
a(I1092
I3
F-0.375
S'manual'
p1114
I59
tp1115
a(I1092
I3
F-0.625
S'useless'
p1116
I59
tp1117
a(I1311
I15
F0.375
S'available'
p1118
I59
tp1119
as(S'stars'
p1120
S'review'
p1121
S'text'
p1122
tp1123
(lp1124
(I139
I0
F-1.0
S'sorry'
p1125
I0
tp1126
a(I539
I2
F0.75
S'due'
p1127
I0
tp1128
a(I1046
I1
I0
g812
I0
tp1129
a(I139
I0
F-1.0
g1125
I0
tp1130
a(I539
I2
F0.75
g1127
I0
tp1131
a(I1046
I1
I0
g812
I0
tp1132
a(I31
I0
I0
g1011
I0
tp1133
a(I86
I0
I0
g1015
I0
tp1134
a(I90
I0
I0
g1017
I0
tp1135
a(I134
I1
F0.875
g100
I0
tp1136
a(I144
I0
F1.0
S'good'
p1137
I0
tp1138
a(I300
I0
F0.875
S'happy'
p1139
I0
tp1140
a(I339
I0
I0
S'text'
p1141
I0
tp1142
a(I429
I0
I0
S'text'
p1143
I0
tp1144
a(I455
I0
I0
S'text'
p1145
I0
tp1146
a(I488
I0
F0.875
g1022
I0
tp1147
a(I536
I0
I0
S'text'
p1148
I0
tp1149
a(I553
I0
F0.75
S'perfect'
p1150
I0
tp1151
a(I664
I1
I0
g93
I0
tp1152
a(I759
I0
I0
g1025
I0
tp1153
a(I759
I0
F1.0
g1027
I0
tp1154
a(I948
I0
F1.0
S'good'
p1155
I0
tp1156
a(I1046
I1
I0
g812
I0
tp1157
a(I1198
I1
F0.75
S'fair'
p1158
I0
tp1159
a(I1291
I0
F0.375
S'ok'
p1160
I0
tp1161
a(I1322
I0
I0
S'da'
p1162
I0
tp1163
a(I139
I0
F-1.0
g1125
I53
tp1164
a(I539
I1
F0.75
S'due'
p1165
I53
tp1166
a(I539
I2
F0.75
g1127
I53
tp1167
a(I1066
I11
F0.875
S'golden'
p1168
I53
tp1169
as(S'fast'
p1170
tp1171
(lp1172
(I696
I0
F0.625
S'super'
p1173
I241
tp1174
as.